(lp1
V\u7981
aV\u8981
aV\u5f85
aV\u53d7
aV\u6000
aV\u5408
aV\u888b
aV\u4f0a
aV\u968f
aV\u4e14
aV\u7a97
aV\u5916
aV\u6599
aV\u65e5
aV\u4f1a
aV\u5b9d
aV\u7a1c
aV\u9020
aV\u6b22
aV\u4e24
aV\u8bb0
aV\u8428
aV\u88ab
aV\u672a
aV\u822c
aV\u6cb3
aV\u5634
aV\u7136
aV\u65b9
aV\u6c38
aV\u5f3a
aV\u7ebf
aV\u6d3e
aV\u89c1
aV\u8840
aV\u5fc5
aV\u8c08
aV\u68cb
aV\u73cd
aV\u724c
aV\u7ecf
aV\u6d4e
aV\u91d1
aV\u6050
aV\u72d7
aV\u5956
aV\u5458
aV\u575a
aV\u8bdd
aV\u60b2
aV\u7edf
aV\u5b64
aV\u51e1
aV\u6b62
aV\u67e5
aV\u9664
aV\u65e9
aV\u5468
aV\u58eb
aV\u7f6a
aV\u8bed
aV\u9a6c
aV\u5ff5
aV\u5e74
aV\u5976
aV\u5403
aV\u7684
aV\u5207
aV\u9986
aV\u56ed
aV\u9a8c
aV\u8111
aV\u9999
aV\u6392
aV\u5f15
aV\u4e94
aV\u5217
aV\u9996
aV\u9519
aV\u5ea7
aV\u9e1f
aV\u63a2
aV\u4ea4
aV\u8d70
aV\u4f8b
aV\u8bc6
aV\u662f
aV\u5a1c
aV\u8131
aV\u7b49
aV\u8bb2
aV\u7ec8
aV\u8d39
aV\u603b
aV\u5c40
aV\u963f
aV\u53c2
aV\u7ec4
aV\u7247
aV\u59c6
aV\u604b
aV\u9876
aV\u8ffd
aV\u4f55
aV\u6559
aV\u57ce
aV\u4e5f
aV\u5dde
aV\u9ec4
aV\u7a7a
aV\u6765
aV\u4ee4
aV\u5267
aV\u6ce8
aV\u706b
aV\u72ec
aV\u666f
aV\u95ee
aV\u5171
aV\u58f0
aV\u5473
aV\u53f2
aV\u66f4
aV\u987b
aV\u57fa
aV\u5e7f
aV\u5c01
aV\u5199
aV\u5f04
aV\u6c89
aV\u4e0a
aV\u540e
aV\u9910
aV\u8282
aV\u5e95
aV\u6f14
aV\u7b97
aV\u9ed8
aV\u8499
aV\u519b
aV\u4e1a
aV\u51c6
aV\u8da3
aV\u4f24
aV\u8d8a
aV\u7528
aV\u4e2a
aV\u7b2c
aV\u5411
aV\u8db3
aV\u4f34
aV\u83b7
aV\u6cb9
aV\u59bb
aV\u4e3a
aV\u4fbf
aV\u4e34
aV\u7761
aV\u7ef4
aV\u4ec5
aV\u79cb
aV\u62cd
aV\u6b4c
aV\u8bd7
aV\u5438
aV\u5965
aV\u665a
aV\u6700
aV\u5c5e
aV\u80e1
aV\u6c11
aV\u673a
aV\u4ee5
aV\u7968
aV\u7531
aV\u5170
aV\u8df3
aV\u8272
aV\u53f7
aV\u6076
aV\u51fb
aV\u667a
aV\u9001
aV\u76f4
aV\u6e05
aV\u6307
aV\u9886
aV\u5409
aV\u6d88
aV\u5e8a
aV\u5b8c
aV\u5f0f
aV\u6811
aV\u706f
aV\u5317
aV\u7ea7
aV\u521d
aV\u5f1f
aV\u9760
aV\u6821
aV\u8d23
aV\u7aa2
aV\u4e25
aV\u7fa4
aV\u6b27
aV\u68a6
aV\u5e1d
aV\u592b
aV\u7eaa
aV\u672f
aV\u51b0
aV\u9635
aV\u571f
aV\u4f2f
aV\u4eba
aV\u7cbe
aV\u9645
aV\u5347
aV\u6c49
aV\u8bcd
aV\u514b
aV\u53f6
aV\u524d
aV\u53cc
aV\u574f
aV\u59d0
aV\u52d2
aV\u5357
aV\u6625
aV\u83dc
aV\u675f
aV\u8ba4
aV\u59d1
aV\u6563
aV\u5de8
aV\u516b
aV\u96ea
aV\u79f0
aV\u7535
aV\u6bd5
aV\u517b
aV\u5efa
aV\u5bfc
aV\u4f7f
aV\u8a00
aV\u8d85
aV\u5404
aV\u9700
aV\u4e08
aV\u7956
aV\u518d
aV\u800c
aV\u9047
aV\u6210
aV\u8001
aV\u5802
aV\u5c14
aV\u5316
aV\u529b
aV\u751a
aV\u949f
aV\u7ba1
aV\u83b1
aV\u5230
aV\u7eb3
aV\u7434
aV\u8fb9
aV\u6e38
aV\u503c
aV\u6025
aV\u8bc1
aV\u6240
aV\u7ec3
aV\u65c5
aV\u4e9a
aV\u4e48
aV\u7acb
aV\u554a
aV\u91cd
aV\u884c
aV\u9759
aV\u4f4e
aV\u53d1
aV\u7ed3
aV\u9762
aV\u5356
aV\u8fd9
aV\u8be5
aV\u62db
aV\u4e0e
aV\u505c
aV\u975e
aV\u811a
aV\u4ee3
aV\u6162
aV\u5de5
aV\u70e7
aV\u5b66
aV\u5668
aV\u578b
aV\u6d6a
aV\u7f6e
aV\u8fdc
aV\u606f
aV\u8ff9
aV\u5e78
aV\u677e
aV\u6301
aV\u6280
aV\u5e03
aV\u5982
aV\u6807
aV\u5386
aV\u6709
aV\u73ed
aV\u7a0b
aV\u558a
aV\u590d
aV\u5c0f
aV\u7f8e
aV\u7b11
aV\u4e13
aV\u9192
aV\u591f
aV\u4f19
aV\u4e45
aV\u521b
aV\u6b21
aV\u5df1
aV\u8d25
aV\u6027
aV\u522b
aV\u8b66
aV\u5fae
aV\u6bcd
aV\u9633
aV\u51b2
aV\u8d35
aV\u6837
aV\u5bb6
aV\u5f39
aV\u7eb8
aV\u523b
aV\u8fbe
aV\u5341
aV\u89c2
aV\u6545
aV\u96f7
aV\u5047
aV\u5bc6
aV\u624d
aV\u624b
aV\u8f66
aV\u514d
aV\u80cc
aV\u5bcc
aV\u8bf4
aV\u89d2
aV\u67aa
aV\u8857
aV\u53d6
aV\u4f59
aV\u4ed8
aV\u725b
aV\u98ce
aV\u80dc
aV\u6c5f
aV\u8fde
aV\u5361
aV\u7ae0
aV\u5a18
aV\u53e6
aV\u5f69
aV\u96e8
aV\u996d
aV\u4fee
aV\u5e73
aV\u6728
aV\u4f4f
aV\u76f8
aV\u5176
aV\u597d
aV\u83ab
aV\u7a81
aV\u8f83
aV\u9002
aV\u5b57
aV\u5987
aV\u5206
aV\u4e89
aV\u6708
aV\u738b
aV\u7403
aV\u660e
aV\u7f3a
aV\u9152
aV\u5012
aV\u6216
aV\u4f18
aV\u739b
aV\u591c
aV\u52a1
aV\u82b1
aV\u5728
aV\u5bab
aV\u65af
aV\u5e2e
aV\u62b1
aV\u51b7
aV\u7236
aV\u53bb
aV\u793c
aV\u4e3e
aV\u5fc3
aV\u5f52
aV\u8d44
aV\u91c7
aV\u51e0
aV\u9884
aV\u53cb
aV\u5236
aV\u65cf
aV\u4e4e
aV\u5b50
aV\u6cd5
aV\u7ed9
aV\u6bdb
aV\u8ddf
aV\u8bef
aV\u54e5
aV\u6beb
aV\u70ed
aV\u516c
aV\u8def
aV\u666e
aV\u82f1
aV\u5370
aV\u97f3
aV\u6574
aV\u7a76
aV\u8bfb
aV\u663e
aV\u90fd
aV\u697c
aV\u767e
aV\u7b80
aV\u5584
aV\u5907
aV\u6740
aV\u4e09
aV\u5f88
aV\u4e8e
aV\u6211
aV\u5c42
aV\u88c5
aV\u601d
aV\u519c
aV\u751f
aV\u6a21
aV\u5723
aV\u95e8
aV\u8425
aV\u5927
aV\u6e29
aV\u6c34
aV\u5973
aV\u652f
aV\u76ae
aV\u7231
aV\u73b0
aV\u80b2
aV\u661f
aV\u72b6
aV\u533b
aV\u96be
aV\u77e5
aV\u6743
aV\u544a
aV\u5c45
aV\u5947
aV\u4e49
aV\u904d
aV\u91cc
aV\u4ece
aV\u63d0
aV\u5f53
aV\u5ba2
aV\u5c55
aV\u85cf
aV\u5957
aV\u8fd8
aV\u56de
aV\u7167
aV\u82e6
aV\u9669
aV\u767d
aV\u536b
aV\u6cea
aV\u5c81
aV\u76ee
aV\u53f0
aV\u786e
aV\u677f
aV\u5177
aV\u52a0
aV\u6b7b
aV\u957f
aV\u66fe
aV\u6781
aV\u5883
aV\u5f02
aV\u7687
aV\u7f57
aV\u5e0c
aV\u4eac
aV\u7591
aV\u5e97
aV\u9057
aV\u5999
aV\u5c9b
aV\u4f9d
aV\u4e1c
aV\u529f
aV\u5931
aV\u90a3
aV\u63a5
aV\u5224
aV\u4ea7
aV\u5fd9
aV\u72af
aV\u94c1
aV\u5b89
aV\u9732
aV\u6bb5
aV\u6234
aV\u5eb7
aV\u6536
aV\u59b9
aV\u6cbb
aV\u533a
aV\u52bf
aV\u793e
aV\u65c1
aV\u5440
aV\u6742
aV\u516d
aV\u5546
aV\u89c9
aV\u6848
aV\u534a
aV\u5fcd
aV\u82cf
aV\u8dd1
aV\u6539
aV\u9752
aV\u8bd5
aV\u7279
aV\u535a
aV\u4fdd
aV\u7adf
aV\u795e
aV\u5f62
aV\u53e5
aV\u7ee7
aV\u8868
aV\u978b
aV\u77ed
aV\u7aef
aV\u6df1
aV\u60f3
aV\u4ef7
aV\u8d76
aV\u7cfb
aV\u5ffd
aV\u53eb
aV\u62ff
aV\u6c14
aV\u5e94
aV\u8003
aV\u5305
aV\u4e07
aV\u9769
aV\u620f
aV\u6218
aV\u9898
aV\u5b9a
aV\u671d
aV\u5e9c
aV\u96c4
aV\u591a
aV\u6325
aV\u62a4
aV\u5929
aV\u60a8
aV\u542b
aV\u89c6
aV\u77f3
aV\u5531
aV\u8033
aV\u70c8
aV\u8bba
aV\u623f
aV\u6d41
aV\u8ba1
aV\u5149
aV\u817f
aV\u5c4b
aV\u53ca
aV\u4f4d
aV\u91ce
aV\u6551
aV\u9053
aV\u7d22
aV\u5355
aV\u5bfb
aV\u8863
aV\u6b65
aV\u5de6
aV\u80fd
aV\u53ea
aV\u4eec
aV\u826f
aV\u8ba9
aV\u65f6
aV\u5979
aV\u5f55
aV\u7c7b
aV\u8bfa
aV\u627f
aV\u9c81
aV\u5e02
aV\u5c06
aV\u8089
aV\u600e
aV\u7559
aV\u6295
aV\u7b14
aV\u6797
aV\u521a
aV\u539f
aV\u6ca1
aV\u7d20
aV\u6362
aV\u62a5
aV\u5426
aV\u5ead
aV\u672c
aV\u73af
aV\u94b1
aV\u51b3
aV\u5fb7
aV\u5b88
aV\u70b9
aV\u8138
aV\u4f3c
aV\u7834
aV\u54c1
aV\u62c5
aV\u8fc7
aV\u5148
aV\u4ecd
aV\u6bcf
aV\u7b54
aV\u5fd7
aV\u5e38
aV\u9000
aV\u75db
aV\u5a5a
aV\u7edd
aV\u4f5c
aV\u5bdf
aV\u585e
aV\u89e3
aV\u9662
aV\u82e5
aV\u6b64
aV\u5168
aV\u7eed
aV\u8f6c
aV\u53ef
aV\u683c
aV\u6570
aV\u81f3
aV\u5e72
aV\u5374
aV\u8ff7
aV\u90e8
aV\u5178
aV\u95fb
aV\u827a
aV\u56fd
aV\u987e
aV\u8c01
aV\u9009
aV\u5988
aV\u6d0b
aV\u628a
aV\u4e0d
aV\u5c11
aV\u5e2d
aV\u526f
aV\u4f17
aV\u5019
aV\u75c5
aV\u6d1b
aV\u5dee
aV\u4e1d
aV\u679c
aV\u589e
aV\u7ea2
aV\u5ba4
aV\u4e2d
aV\u961f
aV\u5c31
aV\u65b0
aV\u4eb2
aV\u8d1f
aV\u9648
aV\u6839
aV\u6d3b
aV\u4e3d
aV\u684c
aV\u56f4
aV\u5143
aV\u573a
aV\u79cd
aV\u964d
aV\u804c
aV\u6bd4
aV\u5757
aV\u79d8
aV\u8d5b
aV\u674e
aV\u4e5d
aV\u4f20
aV\u98de
aV\u8c61
aV\u65e0
aV\u56e2
aV\u53e4
aV\u6069
aV\u5ea6
aV\u836f
aV\u68ee
aV\u5c71
aV\u5173
aV\u66f2
aV\u7a7f
aV\u94f6
aV\u9879
aV\u867d
aV\u81f4
aV\u5f81
aV\u4e00
aV\u5185
aV\u6389
aV\u4e8b
aV\u540c
aV\u6e10
aV\u7814
aV\u7f16
aV\u5218
aV\u4e9b
aV\u4eae
aV\u559d
aV\u76db
aV\u8d22
aV\u4f26
aV\u73a9
aV\u7ae5
aV\u8eab
aV\u7406
aV\u65ad
aV\u542c
aV\u80af
aV\u52b3
aV\u6d32
aV\u51b5
aV\u70df
aV\u5bb9
aV\u7238
aV\u793a
aV\u5c3c
aV\u753b
aV\u592a
aV\u4f46
aV\u8bc9
aV\u4ecb
aV\u538b
aV\u50cf
aV\u534e
aV\u8fd1
aV\u4e50
aV\u8054
aV\u6258
aV\u56db
aV\u515a
aV\u4e16
aV\u98df
aV\u4fe1
aV\u4e60
aV\u6562
aV\u5766
aV\u79d1
aV\u843d
aV\u6b66
aV\u636e
aV\u4e70
aV\u5212
aV\u513f
aV\u5bf9
aV\u4efb
aV\u547c
aV\u5f97
aV\u8c03
aV\u6309
aV\u4e0b
aV\u548c
aV\u4f11
aV\u6c99
aV\u5417
aV\u89c4
aV\u95f4
aV\u8d1d
aV\u9c9c
aV\u901f
aV\u5b9e
aV\u8bf7
aV\u5427
aV\u9aa8
aV\u7c73
aV\u7ec6
aV\u8bae
aV\u67b6
aV\u4e3b
aV\u8bbe
aV\u4ec0
aV\u5145
aV\u6447
aV\u5fc6
aV\u8349
aV\u4e4b
aV\u91ca
aV\u6751
aV\u6253
aV\u53cd
aV\u8457
aV\u9ad8
aV\u4eca
aV\u6761
aV\u56e0
aV\u65e2
aV\u5165
aV\u8fd0
aV\u5b69
aV\u81ea
aV\u4f53
aV\u670b
aV\u9c7c
aV\u5f71
aV\u56f0
aV\u5df2
aV\u5175
aV\u61c2
aV\u8d28
aV\u767b
aV\u51fa
aV\u987f
aV\u8bfe
aV\u5f00
aV\u5b83
aV\u5904
aV\u6587
aV\u5f8b
aV\u4ed6
aV\u4e03
aV\u798f
aV\u4e91
aV\u6001
aV\u6597
aV\u5fd8
aV\u4f9b
aV\u901a
aV\u4f5b
aV\u719f
aV\u821e
aV\u4ea1
aV\u5f20
aV\u5ba3
aV\u8c22
aV\u5e26
aV\u52a9
aV\u653e
aV\u62e5
aV\u771f
aV\u5730
aV\u5bb3
aV\u5934
aV\u4efd
aV\u7740
aV\u6c42
aV\u60c5
aV\u62c9
aV\u5348
aV\u54cd
aV\u754c
aV\u91cf
aV\u9ed1
aV\u5750
aV\u7ad9
aV\u5b58
aV\u8fdb
aV\u505a
aV\u79bb
aV\u6ee1
aV\u4f60
aV\u53e3
aV\u5462
aV\u65e7
aV\u4e66
aV\u5feb
aV\u54ed
aV\u6613
aV\u773c
aV\u6770
aV\u53f3
aV\u5174
aV\u5e76
aV\u7ffb
aV\u987a
aV\u627e
aV\u5f80
aV\u8303
aV\u54ea
aV\u8005
aV\u4e86
aV\u6388
aV\u770b
aV\u540d
aV\u590f
aV\u610f
aV\u6015
aV\u6d17
aV\u5219
aV\u5b98
aV\u671b
aV\u559c
aV\u611f
aV\u529e
aV\u5e08
aV\u7d27
aV\u7ea6
aV\u5229
aV\u63a8
aV\u7537
aV\u8239
aV\u8bb8
aV\u6697
aV\u5c3d
aV\u59cb
aV\u613f
aV\u5df4
aV\u6fc0
aV\u5343
aV\u6d77
aV\u96c6
aV\u53c8
aV\u60ca
aV\u67d0
aV\u59d4
aV\u671f
aV\u76d6
aV\u7259
aV\u53d8
aV\u775b
aV\u4e61
aV\u6b63
aV\u6ce2
aV\u5065
aV\u7269
aV\u547d
aV\u4e71
aV\u5373
aV\u7075
aV\u602a
aV\u8d77
aV\u52a8
aV\u6279
aV\u53f8
aV\u8f7b
aV\u56fe
aV\u6c7d
aV\u897f
a.