(lp1
V\u7981
aV\u6000
aV\u8302
aV\u5f85
aV\u9a87
aV\u9000
aV\u5408
aV\u820c
aV\u968f
aV\u60ac
aV\u969c
aV\u9010
aV\u6c93
aV\u6302
aV\u4e86
aV\u6e14
aV\u6297
aV\u5916
aV\u5c18
aV\u609b
aV\u4f1a
aV\u5b9d
aV\u9e9f
aV\u9020
aV\u6b22
aV\u77a5
aV\u7687
aV\u672a
aV\u7bad
aV\u6f5c
aV\u6cb3
aV\u6b32
aV\u4e34
aV\u7136
aV\u65b9
aV\u5c38
aV\u5f3a
aV\u8bbd
aV\u7ebf
aV\u653e
aV\u89c1
aV\u6840
aV\u94c3
aV\u74a7
aV\u7fc5
aV\u5e44
aV\u52c7
aV\u9aa8
aV\u85c9
aV\u5448
aV\u68cb
aV\u53cd
aV\u79e3
aV\u7ecf
aV\u79d1
aV\u6050
aV\u5fd8
aV\u7262
aV\u77db
aV\u624b
aV\u72d7
aV\u7956
aV\u7ae5
aV\u775a
aV\u8bdd
aV\u7a74
aV\u5591
aV\u6ce3
aV\u6b62
aV\u77e5
aV\u9e64
aV\u5468
aV\u58eb
aV\u7f6a
aV\u73ed
aV\u9a6c
aV\u6d6e
aV\u9616
aV\u94e9
aV\u97f5
aV\u5e74
aV\u5176
aV\u6478
aV\u5954
aV\u7eff
aV\u9614
aV\u5403
aV\u7684
aV\u5a07
aV\u8986
aV\u72ed
aV\u680b
aV\u7f8a
aV\u8e0f
aV\u5999
aV\u89c2
aV\u7f15
aV\u4e94
aV\u9996
aV\u9519
aV\u8d45
aV\u9a9c
aV\u9e1f
aV\u98a0
aV\u6dd1
aV\u4f25
aV\u4ea4
aV\u6570
aV\u9890
aV\u5faa
aV\u72ac
aV\u662f
aV\u5931
aV\u6349
aV\u7433
aV\u5272
aV\u6735
aV\u529f
aV\u6237
aV\u6539
aV\u5cb8
aV\u803b
aV\u67f3
aV\u963f
aV\u5fc5
aV\u53c2
aV\u9ec4
aV\u89c6
aV\u804b
aV\u5076
aV\u9b4d
aV\u9e4f
aV\u8dce
aV\u70f9
aV\u63d2
aV\u4f55
aV\u6ed4
aV\u79d2
aV\u9178
aV\u6559
aV\u79bb
aV\u8be3
aV\u6dfb
aV\u4e24
aV\u5b51
aV\u6765
aV\u4ee4
aV\u79e6
aV\u86d9
aV\u706b
aV\u636d
aV\u72ec
aV\u95ee
aV\u58f0
aV\u83f2
aV\u76f4
aV\u7a77
aV\u72fc
aV\u9e7f
aV\u5dfe
aV\u6881
aV\u8c01
aV\u7f2a
aV\u5f04
aV\u6c89
aV\u4e0a
aV\u7a8d
aV\u540e
aV\u9910
aV\u5e95
aV\u7b97
aV\u7816
aV\u6c99
aV\u7518
aV\u519b
aV\u4e1a
aV\u529d
aV\u731c
aV\u8f9f
aV\u80a1
aV\u76fe
aV\u9970
aV\u7f24
aV\u5026
aV\u7528
aV\u9886
aV\u5cb3
aV\u67af
aV\u60dc
aV\u5c09
aV\u8db3
aV\u5a32
aV\u7eb5
aV\u82d7
aV\u59bb
aV\u4e3a
aV\u62bd
aV\u9b3c
aV\u5c3e
aV\u58c1
aV\u96c5
aV\u7bc7
aV\u84c9
aV\u6548
aV\u79cb
aV\u9e4a
aV\u82cd
aV\u6b4c
aV\u7b80
aV\u60d1
aV\u4f7f
aV\u7ed5
aV\u6c38
aV\u621a
aV\u7965
aV\u5bcc
aV\u665a
aV\u5b5c
aV\u8fdf
aV\u5750
aV\u9011
aV\u573a
aV\u4ee5
aV\u5764
aV\u664b
aV\u63a9
aV\u97e6
aV\u7aed
aV\u67ef
aV\u76f2
aV\u5170
aV\u8272
aV\u8bf7
aV\u6076
aV\u79fb
aV\u667a
aV\u7afd
aV\u837c
aV\u8001
aV\u70bc
aV\u8282
aV\u6e05
aV\u4f17
aV\u6307
aV\u8086
aV\u5409
aV\u9896
aV\u820d
aV\u5b8c
aV\u80e1
aV\u6811
aV\u706f
aV\u5317
aV\u8896
aV\u5106
aV\u5598
aV\u5b9c
aV\u771f
aV\u749e
aV\u6821
aV\u51a0
aV\u8d23
aV\u6625
aV\u7fa4
aV\u8327
aV\u68a6
aV\u5e1d
aV\u592b
aV\u51b0
aV\u5533
aV\u9635
aV\u671f
aV\u5439
aV\u6db8
aV\u4eba
aV\u56f4
aV\u7cbe
aV\u6021
aV\u72c2
aV\u4e45
aV\u5077
aV\u80c6
aV\u6bcd
aV\u814b
aV\u4eca
aV\u624d
aV\u53cc
aV\u674f
aV\u673a
aV\u638c
aV\u7ea2
aV\u6655
aV\u8fd4
aV\u5b57
aV\u7ef8
aV\u6dd8
aV\u725d
aV\u9cde
aV\u91d1
aV\u6b67
aV\u62a5
aV\u95e8
aV\u516b
aV\u96ea
aV\u5664
aV\u676f
aV\u6ef4
aV\u79f0
aV\u9573
aV\u9752
aV\u67f4
aV\u5377
aV\u60f6
aV\u6c79
aV\u517b
aV\u5efa
aV\u9f7f
aV\u6cfe
aV\u5b81
aV\u8a00
aV\u5c04
aV\u5f00
aV\u6789
aV\u6e2d
aV\u518d
aV\u800c
aV\u9f0e
aV\u9047
aV\u6210
aV\u5112
aV\u6c14
aV\u5316
aV\u9f99
aV\u5e18
aV\u629b
aV\u751a
aV\u7c9f
aV\u8ba1
aV\u56a3
aV\u8424
aV\u78a7
aV\u52ab
aV\u5230
aV\u4eb2
aV\u75b5
aV\u7434
aV\u6308
aV\u8fb9
aV\u6614
aV\u738b
aV\u851a
aV\u6240
aV\u5942
aV\u75c5
aV\u6f13
aV\u8346
aV\u9648
aV\u7acb
aV\u91cd
aV\u884c
aV\u674e
aV\u53d1
aV\u4ed3
aV\u9152
aV\u85d5
aV\u798f
aV\u4e58
aV\u4e0e
aV\u4ec7
aV\u8d3b
aV\u975e
aV\u7a95
aV\u4ee3
aV\u5162
aV\u65e5
aV\u5b66
aV\u7fe9
aV\u5668
aV\u6d6a
aV\u506c
aV\u6c81
aV\u7f6e
aV\u53f1
aV\u9a70
aV\u6043
aV\u6012
aV\u7708
aV\u7199
aV\u8ff9
aV\u5ba3
aV\u79fd
aV\u80eb
aV\u6301
aV\u6280
aV\u4e03
aV\u5982
aV\u5386
aV\u6709
aV\u8bed
aV\u7a0b
aV\u8d8a
aV\u590d
aV\u5c0f
aV\u626c
aV\u6311
aV\u526f
aV\u6817
aV\u4f18
aV\u621b
aV\u989c
aV\u97ec
aV\u6b21
aV\u7aa0
aV\u9e23
aV\u54a4
aV\u6027
aV\u53a6
aV\u7729
aV\u522b
aV\u85aa
aV\u592d
aV\u60f3
aV\u5fae
aV\u9633
aV\u51b2
aV\u7535
aV\u5bb6
aV\u5f39
aV\u7eb8
aV\u865a
aV\u7825
aV\u514b
aV\u8fbe
aV\u5341
aV\u6e34
aV\u56ca
aV\u6545
aV\u96f7
aV\u5047
aV\u8bc6
aV\u8749
aV\u524d
aV\u7709
aV\u80cc
aV\u57ce
aV\u5351
aV\u72d0
aV\u89d2
aV\u67aa
aV\u53d6
aV\u4f59
aV\u7ed8
aV\u725b
aV\u90ce
aV\u80dc
aV\u6c5f
aV\u8fde
aV\u8361
aV\u7ae0
aV\u90a6
aV\u9769
aV\u96e8
aV\u626b
aV\u5e26
aV\u516d
aV\u5371
aV\u5e73
aV\u82d2
aV\u8d75
aV\u74f4
aV\u8877
aV\u53f6
aV\u76f8
aV\u95fa
aV\u597d
aV\u9531
aV\u5ffe
aV\u7a81
aV\u4f83
aV\u5802
aV\u5357
aV\u5206
aV\u4e89
aV\u6708
aV\u6b8b
aV\u5c0a
aV\u660e
aV\u9a91
aV\u5012
aV\u65af
aV\u9699
aV\u7f18
aV\u809d
aV\u591c
aV\u6d0b
aV\u4f5c
aV\u8fa3
aV\u8822
aV\u8d24
aV\u5728
aV\u83ab
aV\u7c2a
aV\u6daf
aV\u82b1
aV\u8bf8
aV\u5236
aV\u9738
aV\u53bb
aV\u5c3a
aV\u793c
aV\u4e3e
aV\u8bfa
aV\u5fc3
aV\u9042
aV\u7f28
aV\u6e1d
aV\u670d
aV\u53cb
aV\u85cf
aV\u4e4e
aV\u5b50
aV\u67d3
aV\u6052
aV\u6cd5
aV\u59d7
aV\u7738
aV\u4ed9
aV\u4ff1
aV\u6bdb
aV\u53e4
aV\u72e1
aV\u5360
aV\u6062
aV\u5367
aV\u6c90
aV\u610e
aV\u6768
aV\u8c6a
aV\u70ed
aV\u516c
aV\u8def
aV\u8d3c
aV\u72f1
aV\u77f3
aV\u9524
aV\u5f15
aV\u80fd
aV\u697c
aV\u4e7e
aV\u5a01
aV\u4ec1
aV\u8703
aV\u4eea
aV\u7405
aV\u5584
aV\u5907
aV\u4e09
aV\u67d4
aV\u900d
aV\u500d
aV\u9b51
aV\u834f
aV\u4e8e
aV\u6211
aV\u7f3a
aV\u5f13
aV\u8098
aV\u6619
aV\u88c5
aV\u8f83
aV\u58ee
aV\u601d
aV\u751f
aV\u5ba0
aV\u539a
aV\u8425
aV\u66ae
aV\u5927
aV\u51f0
aV\u6e29
aV\u7f1d
aV\u732b
aV\u53e3
aV\u5173
aV\u8d2f
aV\u5e9c
aV\u7231
aV\u73b0
aV\u60b2
aV\u661f
aV\u72b6
aV\u4e39
aV\u6bcb
aV\u653f
aV\u96be
aV\u6750
aV\u70c2
aV\u5c45
aV\u5947
aV\u80a0
aV\u4e49
aV\u7cca
aV\u91cc
aV\u654f
aV\u4ece
aV\u6251
aV\u63d0
aV\u5f53
aV\u8f95
aV\u65cf
aV\u8fd8
aV\u864e
aV\u7ec7
aV\u91dc
aV\u56de
aV\u73e0
aV\u56fa
aV\u5c65
aV\u55e4
aV\u7167
aV\u82e6
aV\u89d1
aV\u5e7d
aV\u536b
aV\u6cea
aV\u606d
aV\u59ec
aV\u76ee
aV\u5df4
aV\u68a8
aV\u8679
aV\u52a0
aV\u6b7b
aV\u81fc
aV\u957f
aV\u86fe
aV\u7f81
aV\u5883
aV\u5f62
aV\u8e87
aV\u5200
aV\u9189
aV\u5eb8
aV\u9c8b
aV\u6e56
aV\u8e0c
aV\u9488
aV\u6591
aV\u5410
aV\u8093
aV\u79c0
aV\u6697
aV\u9999
aV\u679d
aV\u4e1c
aV\u7a9f
aV\u8131
aV\u60a3
aV\u805a
aV\u63a5
aV\u5ea7
aV\u9526
aV\u6028
aV\u840d
aV\u9706
aV\u97ad
aV\u72af
aV\u7389
aV\u9732
aV\u7eb7
aV\u79b9
aV\u6cbb
aV\u6b3a
aV\u7fbd
aV\u5e3c
aV\u813e
aV\u65c1
aV\u8363
aV\u6666
aV\u86c7
aV\u51c9
aV\u9ed8
aV\u534a
aV\u5fcd
aV\u4e4c
aV\u8457
aV\u5f52
aV\u51fb
aV\u76d7
aV\u7b5a
aV\u5c82
aV\u603b
aV\u82df
aV\u795e
aV\u6de1
aV\u7391
aV\u9762
aV\u7ee7
aV\u6068
aV\u6cf0
aV\u79bd
aV\u7aef
aV\u996e
aV\u6df1
aV\u9ee9
aV\u58f3
aV\u51e0
aV\u9e3f
aV\u4ef7
aV\u8d76
aV\u59f9
aV\u77eb
aV\u7099
aV\u817e
aV\u9501
aV\u5e94
aV\u9003
aV\u5782
aV\u9a84
aV\u4e07
aV\u60ed
aV\u6b8a
aV\u5c14
aV\u4e8c
aV\u8f99
aV\u5f92
aV\u8315
aV\u4e18
aV\u5be1
aV\u541b
aV\u6b9a
aV\u671d
aV\u529b
aV\u821f
aV\u96c4
aV\u7ed1
aV\u82f1
aV\u7023
aV\u711a
aV\u4e27
aV\u6770
aV\u5929
aV\u58a8
aV\u63aa
aV\u7f2d
aV\u8eac
aV\u7531
aV\u8033
aV\u949f
aV\u5e37
aV\u60b8
aV\u83ba
aV\u98df
aV\u8d74
aV\u6d41
aV\u54c0
aV\u6843
aV\u4fca
aV\u9b45
aV\u65f7
aV\u9647
aV\u6620
aV\u5149
aV\u70c8
aV\u5c4b
aV\u53ca
aV\u4f4d
aV\u7ecc
aV\u71ce
aV\u6551
aV\u9053
aV\u8d22
aV\u5355
aV\u62d4
aV\u6f78
aV\u88d8
aV\u5f69
aV\u8bda
aV\u7edc
aV\u8499
aV\u5c24
aV\u8863
aV\u77e2
aV\u6b65
aV\u94a7
aV\u5315
aV\u5f20
aV\u78e8
aV\u7726
aV\u6f6d
aV\u8feb
aV\u9a6f
aV\u8ba9
aV\u5bd2
aV\u9677
aV\u65f6
aV\u8179
aV\u90f8
aV\u767e
aV\u8f7d
aV\u62ab
aV\u7a7f
aV\u9ed4
aV\u5c81
aV\u4e01
aV\u5e02
aV\u5c06
aV\u8089
aV\u8d8b
aV\u8c89
aV\u8c82
aV\u8c08
aV\u7b14
aV\u5f97
aV\u98d8
aV\u5899
aV\u6d9b
aV\u521a
aV\u871c
aV\u539f
aV\u8584
aV\u591a
aV\u7d20
aV\u6362
aV\u9aa5
aV\u6295
aV\u6a2a
aV\u5ead
aV\u672c
aV\u7530
aV\u9632
aV\u7334
aV\u5fb7
aV\u70b9
aV\u9022
aV\u55bb
aV\u523a
aV\u773c
aV\u6c34
aV\u94c1
aV\u8fc7
aV\u96fe
aV\u5148
aV\u6dcb
aV\u94e2
aV\u6cab
aV\u4ea6
aV\u5fd7
aV\u568e
aV\u7edd
aV\u675c
aV\u585e
aV\u593a
aV\u89e3
aV\u6b64
aV\u82e5
aV\u5b64
aV\u5fe7
aV\u5168
aV\u5deb
aV\u5de6
aV\u7eed
aV\u8f6c
aV\u53ef
aV\u8d70
aV\u81f3
aV\u5e72
aV\u8ff7
aV\u88f9
aV\u5178
aV\u95fb
aV\u7a7a
aV\u56fd
aV\u586b
aV\u987e
aV\u5401
aV\u7fc1
aV\u6b84
aV\u6c86
aV\u6809
aV\u950b
aV\u5e96
aV\u4e0d
aV\u708e
aV\u5411
aV\u826f
aV\u6717
aV\u6019
aV\u5a5a
aV\u5dee
aV\u4e1d
aV\u679c
aV\u4ea2
aV\u5ba4
aV\u5f99
aV\u5cf0
aV\u6829
aV\u901d
aV\u7d2b
aV\u6b66
aV\u4e2d
aV\u6728
aV\u632f
aV\u6ca1
aV\u5c31
aV\u65b0
aV\u7eb2
aV\u8d1f
aV\u6839
aV\u753b
aV\u8e3d
aV\u733f
aV\u7ef4
aV\u8c41
aV\u6677
aV\u8747
aV\u63a0
aV\u61c8
aV\u5fcc
aV\u9b4f
aV\u98ce
aV\u5174
aV\u6bd4
aV\u7f57
aV\u6059
aV\u6025
aV\u4e5d
aV\u8fdc
aV\u5b5f
aV\u98de
aV\u8c61
aV\u65e0
aV\u56e2
aV\u8c79
aV\u8069
aV\u7ea6
aV\u7ed3
aV\u60ee
aV\u5c71
aV\u9e29
aV\u5973
aV\u66f2
aV\u6851
aV\u8bf4
aV\u94f6
aV\u9879
aV\u767d
aV\u6f2b
aV\u6781
aV\u4e00
aV\u5185
aV\u5706
aV\u5b89
aV\u6208
aV\u4e8b
aV\u540c
aV\u6e10
aV\u5195
aV\u9014
aV\u7ec6
aV\u7f16
aV\u6218
aV\u611a
aV\u559d
aV\u86db
aV\u4fce
aV\u9e20
aV\u7d22
aV\u654c
aV\u6ca7
aV\u4f26
aV\u73a9
aV\u8eab
aV\u7406
aV\u65ad
aV\u542c
aV\u90af
aV\u60fa
aV\u8fb1
aV\u7c89
aV\u9532
aV\u7834
aV\u5bb9
aV\u675e
aV\u65bd
aV\u543c
aV\u9f13
aV\u8fc1
aV\u4fe1
aV\u9a74
aV\u8870
aV\u552f
aV\u62e3
aV\u534e
aV\u4e50
aV\u66fe
aV\u71d5
aV\u8054
aV\u5de5
aV\u56db
aV\u695a
aV\u5ddd
aV\u76ca
aV\u70df
aV\u6fe1
aV\u5ae3
aV\u89e5
aV\u8f66
aV\u5f02
aV\u5c3d
aV\u8366
aV\u95ed
aV\u60ef
aV\u67f1
aV\u4e70
aV\u6668
aV\u5bf9
aV\u4e95
aV\u4efb
aV\u9c7c
aV\u6674
aV\u6d82
aV\u6797
aV\u7c07
aV\u6309
aV\u6ee5
aV\u4e0b
aV\u8c8c
aV\u4f11
aV\u6e90
aV\u54ab
aV\u5915
aV\u6094
aV\u7f1a
aV\u89c4
aV\u8f6e
aV\u4e3d
aV\u501f
aV\u5b9e
aV\u8bf1
aV\u5ff5
aV\u7ffc
aV\u8e74
aV\u9e70
aV\u52a8
aV\u96c6
aV\u8e49
aV\u75b2
aV\u8c37
aV\u8d64
aV\u963b
aV\u81ba
aV\u803f
aV\u5bbe
aV\u96c0
aV\u6389
aV\u5145
aV\u8349
aV\u62c8
aV\u4e4b
aV\u51cc
aV\u7f51
aV\u53f9
aV\u6253
aV\u8155
aV\u6c57
aV\u9ad8
aV\u7ece
aV\u74dc
aV\u9761
aV\u56e0
aV\u5de2
aV\u5165
aV\u5389
aV\u8fd0
aV\u81ea
aV\u4f53
aV\u606f
aV\u5f71
aV\u4ef0
aV\u5df2
aV\u5175
aV\u7b79
aV\u90d1
aV\u767b
aV\u51fa
aV\u6518
aV\u907f
aV\u8700
aV\u8e2a
aV\u6885
aV\u5904
aV\u6587
aV\u5e06
aV\u8a89
aV\u4ead
aV\u5434
aV\u818f
aV\u620e
aV\u4e91
aV\u6001
aV\u4faf
aV\u6597
aV\u4e16
aV\u8299
aV\u517d
aV\u751c
aV\u821e
aV\u4ea1
aV\u9f20
aV\u63a3
aV\u8c22
aV\u80a5
aV\u6124
aV\u65a7
aV\u7626
aV\u52a9
aV\u7b28
aV\u682a
aV\u9b13
aV\u5730
aV\u8bb3
aV\u5934
aV\u7a88
aV\u72b9
aV\u77bb
aV\u7ade
aV\u6cbd
aV\u960b
aV\u96c1
aV\u6740
aV\u9b49
aV\u6c42
aV\u60c5
aV\u5144
aV\u804a
aV\u754c
aV\u548c
aV\u76d1
aV\u9f50
aV\u6bd3
aV\u5f1f
aV\u5154
aV\u65d7
aV\u7656
aV\u9065
aV\u8fdb
aV\u7f8e
aV\u84dd
aV\u955c
aV\u8350
aV\u6ee1
aV\u7b11
aV\u9493
aV\u4e66
aV\u62e9
aV\u5feb
aV\u54ed
aV\u656c
aV\u626e
aV\u5f70
aV\u53f3
aV\u50f5
aV\u9974
aV\u5df7
aV\u7af9
aV\u7ffb
aV\u987a
aV\u6cfd
aV\u836b
aV\u51ff
aV\u827e
aV\u7601
aV\u5f80
aV\u8482
aV\u8005
aV\u5984
aV\u5507
aV\u7686
aV\u5b88
aV\u670b
aV\u540d
aV\u6d8c
aV\u610f
aV\u5f25
aV\u6d17
aV\u6696
aV\u5219
aV\u671b
aV\u609a
aV\u5c1d
aV\u559c
aV\u691f
aV\u9e21
aV\u97a0
aV\u6b23
aV\u5025
aV\u8d27
aV\u5ea6
aV\u672b
aV\u90aa
aV\u8c2d
aV\u8bcd
aV\u7537
aV\u7eb6
aV\u8239
aV\u8840
aV\u9f3b
aV\u843d
aV\u59cb
aV\u613f
aV\u95f4
aV\u66b4
aV\u5343
aV\u6d77
aV\u4ec6
aV\u770b
aV\u5df1
aV\u60ca
aV\u8651
aV\u503e
aV\u64d2
aV\u59d4
aV\u76d6
aV\u53d8
aV\u775b
aV\u895f
aV\u9ca4
aV\u5fe0
aV\u6b63
aV\u6ce2
aV\u8865
aV\u51e4
aV\u7269
aV\u8be8
aV\u776b
aV\u72ee
aV\u4e71
aV\u5373
aV\u7075
aV\u81f4
aV\u8d77
aV\u5ef6
aV\u9a79
aV\u53f8
aV\u8f7b
aV\u56fe
aV\u547d
aV\u897f
aV\u7b54
a.