(dp1
S'chars2'
p2
(lp3
V\u7981
aV\u8981
aV\u6302
aV\u5f85
aV\u9a87
aV\u6000
aV\u8c08
aV\u66b4
aV\u4f0a
aV\u820c
aV\u968f
aV\u6350
aV\u9010
aV\u9493
aV\u8302
aV\u8f95
aV\u9614
aV\u7a97
aV\u5916
aV\u5c18
aV\u7a3d
aV\u6d1e
aV\u9020
aV\u5b9a
aV\u6687
aV\u6da9
aV\u672a
aV\u7bad
aV\u7eaf
aV\u4f5c
aV\u6cb3
aV\u6b32
aV\u4e34
aV\u7136
aV\u65b9
aV\u5c38
aV\u5f3a
aV\u7ebf
aV\u653e
aV\u89c1
aV\u9b42
aV\u5fc5
aV\u9644
aV\u53f2
aV\u5c48
aV\u73cd
aV\u7ecf
aV\u8d4e
aV\u91d1
aV\u6050
aV\u8352
aV\u72d7
aV\u7ae5
aV\u7edf
aV\u5b64
aV\u6ce3
aV\u6b62
aV\u77e5
aV\u9e64
aV\u8010
aV\u58eb
aV\u73ed
aV\u9a6c
aV\u6d6e
aV\u4f1a
aV\u65a7
aV\u5ff5
aV\u5e74
aV\u5176
aV\u95f9
aV\u6795
aV\u5168
aV\u7eff
aV\u6614
aV\u9080
aV\u6297
aV\u7686
aV\u8986
aV\u9488
aV\u680b
aV\u7f8a
aV\u8111
aV\u9890
aV\u8c13
aV\u7f15
aV\u4fef
aV\u7a17
aV\u9996
aV\u9519
aV\u6d45
aV\u7f9a
aV\u661f
aV\u80a0
aV\u5ba2
aV\u5f25
aV\u4ea4
aV\u8d70
aV\u679d
aV\u8eaf
aV\u72ac
aV\u662f
aV\u5931
aV\u8349
aV\u7433
aV\u83b2
aV\u6735
aV\u7a9f
aV\u6237
aV\u76c8
aV\u6539
aV\u5cb8
aV\u803b
aV\u624b
aV\u9e3f
aV\u75be
aV\u5bc2
aV\u5251
aV\u9ec4
aV\u6247
aV\u89c6
aV\u4fca
aV\u8083
aV\u9970
aV\u5bd2
aV\u4f55
aV\u6dfb
aV\u4e24
aV\u6751
aV\u6765
aV\u4ee4
aV\u7267
aV\u6d69
aV\u706b
aV\u72ec
aV\u666f
aV\u95ee
aV\u5171
aV\u58f0
aV\u5473
aV\u89d2
aV\u66f4
aV\u7a77
aV\u8ffd
aV\u9634
aV\u6e7f
aV\u7247
aV\u8001
aV\u532a
aV\u6e85
aV\u5f04
aV\u9006
aV\u7c89
aV\u5bc4
aV\u4e0a
aV\u540e
aV\u7891
aV\u9910
aV\u4e95
aV\u6714
aV\u7816
aV\u6c99
aV\u7518
aV\u53cc
aV\u5e1a
aV\u90fd
aV\u9f84
aV\u6da3
aV\u4f24
aV\u5b54
aV\u94a9
aV\u8d28
aV\u67af
aV\u8db3
aV\u745f
aV\u79bb
aV\u4e3a
aV\u62bd
aV\u9b3c
aV\u4fbf
aV\u5c3e
aV\u58c1
aV\u9761
aV\u96c5
aV\u79cb
aV\u5272
aV\u82cd
aV\u6b4c
aV\u67cf
aV\u538c
aV\u60d1
aV\u4f7f
aV\u96d5
aV\u8165
aV\u665a
aV\u8fdf
aV\u80e1
aV\u5c11
aV\u573a
aV\u4ee5
aV\u54ed
aV\u5170
aV\u566a
aV\u62ed
aV\u8513
aV\u67ef
aV\u6170
aV\u8272
aV\u8bf7
aV\u9876
aV\u5578
aV\u667a
aV\u624d
aV\u9001
aV\u8282
aV\u6e05
aV\u5f84
aV\u6307
aV\u8086
aV\u6d88
aV\u638c
aV\u6f0f
aV\u548e
aV\u6811
aV\u6c11
aV\u8292
aV\u5317
aV\u8096
aV\u571f
aV\u6821
aV\u51a0
aV\u8d23
aV\u6625
aV\u7fa4
aV\u68a6
aV\u8c29
aV\u592b
aV\u6eaa
aV\u51b0
aV\u5df2
aV\u5f1f
aV\u5999
aV\u5439
aV\u4eba
aV\u723d
aV\u7cbe
aV\u79c0
aV\u72c2
aV\u4e45
aV\u80c6
aV\u602a
aV\u8bcd
aV\u594b
aV\u4eca
aV\u524d
aV\u5bcc
aV\u4e4c
aV\u6851
aV\u903e
aV\u4ea2
aV\u5e55
aV\u67d4
aV\u5357
aV\u6167
aV\u56da
aV\u9cde
aV\u79d1
aV\u70e6
aV\u95e8
aV\u516b
aV\u60a6
aV\u676f
aV\u773a
aV\u9752
aV\u67f4
aV\u8377
aV\u80f6
aV\u9f7f
aV\u62b1
aV\u4e94
aV\u8a00
aV\u82d7
aV\u5f00
aV\u5e08
aV\u8d56
aV\u800c
aV\u9f0e
aV\u6210
aV\u5802
aV\u6d95
aV\u6c14
aV\u5316
aV\u9f99
aV\u4e18
aV\u529b
aV\u851a
aV\u601c
aV\u949f
aV\u971e
aV\u7ba1
aV\u78a7
aV\u62ab
aV\u7779
aV\u7f3a
aV\u52b2
aV\u75b5
aV\u6c34
aV\u8fb9
aV\u5e38
aV\u56f0
aV\u6b8b
aV\u6bc1
aV\u6240
aV\u75c5
aV\u8346
aV\u4ec5
aV\u9648
aV\u7acb
aV\u6d4a
aV\u91cd
aV\u884c
aV\u674e
aV\u53d1
aV\u4ed3
aV\u9152
aV\u53cd
aV\u4e0e
aV\u8700
aV\u975e
aV\u5be1
aV\u6291
aV\u4ee3
aV\u5de5
aV\u70e7
aV\u6668
aV\u6d6a
aV\u51ed
aV\u5480
aV\u6c81
aV\u6f6e
aV\u7434
aV\u673a
aV\u6068
aV\u79fd
aV\u677e
aV\u6280
aV\u4e03
aV\u5982
aV\u51c0
aV\u6709
aV\u97ed
aV\u590d
aV\u5c0f
aV\u7f8e
aV\u7b11
aV\u6613
aV\u6817
aV\u5e45
aV\u7d6e
aV\u541f
aV\u7f9e
aV\u52a0
aV\u9e23
aV\u901a
aV\u6d25
aV\u6027
aV\u522b
aV\u85aa
aV\u70ac
aV\u5fae
aV\u6bcd
aV\u9633
aV\u51b2
aV\u8d35
aV\u5bb6
aV\u5f39
aV\u7eb8
aV\u523b
aV\u70bc
aV\u8fbe
aV\u5341
aV\u6e43
aV\u89c2
aV\u6545
aV\u5047
aV\u8bc6
aV\u8749
aV\u7ec8
aV\u7709
aV\u80cc
aV\u57ce
aV\u5351
aV\u6653
aV\u61d2
aV\u9057
aV\u53d6
aV\u4f59
aV\u7ed8
aV\u725b
aV\u90ce
aV\u80dc
aV\u6c5f
aV\u8fde
aV\u8361
aV\u7ae0
aV\u7565
aV\u55a7
aV\u53e6
aV\u96e8
aV\u626b
aV\u9e26
aV\u9759
aV\u4fee
aV\u5e73
aV\u8877
aV\u53f6
aV\u5f79
aV\u76f8
aV\u817e
aV\u597d
aV\u83ab
aV\u6148
aV\u8fd4
aV\u682a
aV\u7f57
aV\u5206
aV\u6708
aV\u738b
aV\u758f
aV\u660e
aV\u9a91
aV\u5012
aV\u9699
aV\u5b9b
aV\u809d
aV\u591c
aV\u659f
aV\u52a1
aV\u6320
aV\u67a3
aV\u9022
aV\u6ca5
aV\u9524
aV\u5728
aV\u5bab
aV\u803f
aV\u70ad
aV\u962e
aV\u82b1
aV\u51b7
aV\u5236
aV\u53bb
aV\u5c3a
aV\u793c
aV\u4e3e
aV\u5c61
aV\u5fc3
aV\u6842
aV\u91c7
aV\u51e0
aV\u7236
aV\u85cf
aV\u864e
aV\u62b9
aV\u5f62
aV\u6cd5
aV\u66d9
aV\u6bdb
aV\u865e
aV\u72e1
aV\u8bef
aV\u6ce5
aV\u6768
aV\u6beb
aV\u8c6a
aV\u60ed
aV\u916c
aV\u8def
aV\u82f1
aV\u77f3
aV\u6574
aV\u5f15
aV\u8bfb
aV\u663e
aV\u70fd
aV\u767e
aV\u4ec1
aV\u5f03
aV\u7405
aV\u8584
aV\u5907
aV\u6740
aV\u4e09
aV\u7ea2
aV\u4e8e
aV\u6211
aV\u5f13
aV\u5c42
aV\u5415
aV\u731b
aV\u58ee
aV\u601d
aV\u751f
aV\u8944
aV\u63a0
aV\u5723
aV\u68a2
aV\u8425
aV\u65a4
aV\u5927
aV\u632b
aV\u5173
aV\u66ae
aV\u7231
aV\u73b0
aV\u60b2
aV\u9e1f
aV\u5937
aV\u96be
aV\u88c2
aV\u5c45
aV\u5377
aV\u5947
aV\u60a0
aV\u4e49
aV\u64cd
aV\u58f6
aV\u904d
aV\u91cc
aV\u654f
aV\u4ece
aV\u6251
aV\u63d0
aV\u5f53
aV\u5408
aV\u62d6
aV\u4ecd
aV\u8d77
aV\u4e4e
aV\u7ec7
aV\u56de
aV\u73e0
aV\u5c65
aV\u85e4
aV\u7167
aV\u5b50
aV\u5e7d
aV\u536b
aV\u6cea
aV\u606d
aV\u7f6e
aV\u76ee
aV\u9a71
aV\u4f73
aV\u95f4
aV\u5177
aV\u68a8
aV\u6b7b
aV\u987d
aV\u957f
aV\u56fe
aV\u6781
aV\u5883
aV\u5f02
aV\u5dee
aV\u8e87
aV\u9189
aV\u8e0c
aV\u5e9c
aV\u987e
aV\u6697
aV\u9999
aV\u4f9d
aV\u4e1c
aV\u529f
aV\u5c04
aV\u5420
aV\u60a3
aV\u505a
aV\u76ae
aV\u6028
aV\u840d
aV\u5306
aV\u97ad
aV\u72af
aV\u955c
aV\u7389
aV\u9732
aV\u6234
aV\u6536
aV\u8038
aV\u7fbd
aV\u768b
aV\u52bf
aV\u813e
aV\u65c1
aV\u5c40
aV\u86c7
aV\u5546
aV\u89c9
aV\u9ed8
aV\u534a
aV\u5fcd
aV\u8be3
aV\u63d6
aV\u5f52
aV\u8bd5
aV\u76d7
aV\u6cb8
aV\u5858
aV\u535a
aV\u4fdd
aV\u603b
aV\u795e
aV\u6de1
aV\u6c60
aV\u9762
aV\u8868
aV\u6666
aV\u77ed
aV\u7aef
aV\u8427
aV\u6df1
aV\u963f
aV\u4ef7
aV\u8ba1
aV\u5ffd
aV\u5feb
aV\u7099
aV\u5c14
aV\u6d01
aV\u5e94
aV\u8003
aV\u5782
aV\u4e07
aV\u70ed
aV\u4e8c
aV\u516c
aV\u8f99
aV\u5f92
aV\u5e18
aV\u8098
aV\u541b
aV\u539a
aV\u671d
aV\u629b
aV\u57a2
aV\u6325
aV\u8247
aV\u6627
aV\u6770
aV\u5929
aV\u58a8
aV\u542b
aV\u67f3
aV\u5531
aV\u8033
aV\u7c9f
aV\u73ca
aV\u7d27
aV\u5939
aV\u60b8
aV\u8bba
aV\u98df
aV\u56bc
aV\u8d74
aV\u6d41
aV\u54c0
aV\u6843
aV\u83ca
aV\u5df7
aV\u9647
aV\u5149
aV\u70c8
aV\u5c4b
aV\u53ca
aV\u4f4d
aV\u96cc
aV\u91ce
aV\u6551
aV\u9053
aV\u6c57
aV\u5ea6
aV\u8bda
aV\u8863
aV\u8fe2
aV\u6b65
aV\u755c
aV\u5f20
aV\u60e8
aV\u826f
aV\u6cf0
aV\u65f6
aV\u8179
aV\u80f8
aV\u72ed
aV\u8f7d
aV\u5320
aV\u7a7f
aV\u5c81
aV\u9500
aV\u5076
aV\u7406
aV\u6089
aV\u6108
aV\u8d8b
aV\u520a
aV\u8c89
aV\u6491
aV\u86ca
aV\u6295
aV\u7b14
aV\u6797
aV\u5899
aV\u6d9b
aV\u621a
aV\u971c
aV\u539f
aV\u5584
aV\u6ca1
aV\u7d20
aV\u6362
aV\u62a5
aV\u4fa7
aV\u5426
aV\u51cc
aV\u722a
aV\u5ead
aV\u82b3
aV\u7cb1
aV\u7530
aV\u9632
aV\u515a
aV\u5fb7
aV\u70b9
aV\u5938
aV\u55bb
aV\u773c
aV\u5bbf
aV\u7834
aV\u54c1
aV\u8fc7
aV\u8c46
aV\u5148
aV\u6dcb
aV\u6500
aV\u6bcf
aV\u54d1
aV\u590f
aV\u5fd7
aV\u6e38
aV\u75db
aV\u5021
aV\u7edd
aV\u675c
aV\u5bdf
aV\u89e3
aV\u9662
aV\u82e5
aV\u6b64
aV\u6389
aV\u80fd
aV\u6deb
aV\u526a
aV\u56ed
aV\u8f6c
aV\u53ef
aV\u6570
aV\u81f3
aV\u5374
aV\u8ff7
aV\u90e8
aV\u7978
aV\u95fb
aV\u7a7a
aV\u56fd
aV\u5f7c
aV\u707e
aV\u8c01
aV\u6682
aV\u7384
aV\u60f6
aV\u6d0b
aV\u728a
aV\u4e0d
aV\u788e
aV\u5411
aV\u5e2d
aV\u4f17
aV\u6d1b
aV\u6f13
aV\u4e1d
aV\u6f9c
aV\u9971
aV\u6ea2
aV\u5ba4
aV\u8d2b
aV\u52aa
aV\u4e2d
aV\u6728
aV\u632f
aV\u5c31
aV\u65b0
aV\u4eb2
aV\u83f2
aV\u8d1f
aV\u6839
aV\u6d3b
aV\u4e3d
aV\u733f
aV\u7ef4
aV\u9e21
aV\u8bc4
aV\u4ed8
aV\u76df
aV\u98ce
aV\u5179
aV\u8d25
aV\u4f4e
aV\u4e5d
aV\u8fdc
aV\u98de
aV\u6c61
aV\u65e0
aV\u9163
aV\u56e2
aV\u96f6
aV\u53e4
aV\u9650
aV\u6069
aV\u7ea6
aV\u7ed3
aV\u66fc
aV\u5c71
aV\u5973
aV\u66f2
aV\u9e7f
aV\u94f6
aV\u9879
aV\u65e6
aV\u767d
aV\u7ffc
aV\u5f81
aV\u4e00
aV\u5df1
aV\u5185
aV\u5706
aV\u5b89
aV\u6208
aV\u4e8b
aV\u540c
aV\u6e10
aV\u8a93
aV\u6d12
aV\u9014
aV\u591a
aV\u609f
aV\u9704
aV\u7d22
aV\u6ca7
aV\u5f26
aV\u8ba9
aV\u8eab
aV\u5c06
aV\u9690
aV\u542c
aV\u8fb1
aV\u7089
aV\u52b3
aV\u6d32
aV\u51b5
aV\u60df
aV\u5bb9
aV\u586b
aV\u593a
aV\u97f3
aV\u9f13
aV\u8fc1
aV\u4f46
aV\u761f
aV\u534e
aV\u8fd1
aV\u4e50
aV\u66fe
aV\u71d5
aV\u65e5
aV\u695a
aV\u70df
aV\u4fe1
aV\u9891
aV\u62e3
aV\u71e5
aV\u8f66
aV\u5c3d
aV\u95ed
aV\u67f1
aV\u9e70
aV\u513f
aV\u53f9
aV\u4efb
aV\u9c7c
aV\u5a03
aV\u6d82
aV\u5f97
aV\u6309
aV\u81ed
aV\u4e0b
aV\u8c8c
aV\u900f
aV\u4f11
aV\u6e90
aV\u5915
aV\u6e2d
aV\u901f
aV\u8721
aV\u4ff1
aV\u4e1a
aV\u7c27
aV\u9a70
aV\u9aa8
aV\u54ac
aV\u602f
aV\u8bae
aV\u5f31
aV\u8f9f
aV\u8c37
aV\u53c8
aV\u9ab8
aV\u901e
aV\u9f50
aV\u5bbe
aV\u96c0
aV\u5145
aV\u6447
aV\u7b49
aV\u604d
aV\u4e4b
aV\u91ca
aV\u904f
aV\u626c
aV\u7f51
aV\u5bf9
aV\u8d4f
aV\u8457
aV\u5b59
aV\u9ad8
aV\u655d
aV\u74dc
aV\u6761
aV\u56e0
aV\u6263
aV\u65e2
aV\u5165
aV\u5389
aV\u866b
aV\u81ea
aV\u6349
aV\u4f53
aV\u706f
aV\u547c
aV\u5f71
aV\u4ef0
aV\u8273
aV\u95f2
aV\u5175
aV\u7528
aV\u767b
aV\u51fa
aV\u987f
aV\u6700
aV\u6a2a
aV\u6885
aV\u5904
aV\u6587
aV\u5e06
aV\u8a89
aV\u4ead
aV\u5f8b
aV\u9c8d
aV\u672c
aV\u4e91
aV\u4f10
aV\u5fd8
aV\u501a
aV\u719f
aV\u821e
aV\u4ea1
aV\u7720
aV\u8c22
aV\u4e08
aV\u6da7
aV\u5e26
aV\u52a9
aV\u7b28
aV\u582a
aV\u5cad
aV\u51af
aV\u522e
aV\u5730
aV\u8bb3
aV\u5934
aV\u9636
aV\u72b9
aV\u7ede
aV\u6cbd
aV\u4f34
aV\u96c1
aV\u7740
aV\u6c42
aV\u60c5
aV\u5144
aV\u9646
aV\u52c9
aV\u804a
aV\u54cd
aV\u654c
aV\u91cf
aV\u548c
aV\u9ed1
aV\u5750
aV\u60d5
aV\u5154
aV\u6e56
aV\u5b58
aV\u8fdb
aV\u6f8e
aV\u9f20
aV\u6ee1
aV\u5760
aV\u53e3
aV\u56ca
aV\u5de7
aV\u4e66
aV\u5ae9
aV\u8feb
aV\u82e6
aV\u94ed
aV\u656c
aV\u79ef
aV\u4f3c
aV\u59bb
aV\u5f70
aV\u50f5
aV\u5174
aV\u65f7
aV\u5e76
aV\u7af9
aV\u7ffb
aV\u987a
aV\u827e
aV\u5f80
aV\u8005
aV\u5984
aV\u5507
aV\u5e86
aV\u5b88
aV\u770b
aV\u540d
aV\u6d8c
aV\u610f
aV\u9611
aV\u6696
aV\u5b98
aV\u671b
aV\u559c
aV\u611f
aV\u6e21
aV\u6b23
aV\u6025
aV\u8d27
aV\u4ea6
aV\u5229
aV\u63a8
aV\u65ad
aV\u8be6
aV\u501f
aV\u7537
aV\u7eb6
aV\u54b8
aV\u843d
aV\u613f
aV\u5df4
aV\u7e41
aV\u6fc0
aV\u5343
aV\u64c2
aV\u51c4
aV\u6d47
aV\u7ec6
aV\u8bc8
aV\u60ca
aV\u594f
aV\u8651
aV\u8fd0
aV\u671f
aV\u7259
aV\u53d8
aV\u5f7b
aV\u895f
aV\u7ade
aV\u4e61
aV\u7fe0
aV\u6b63
aV\u6ce2
aV\u6865
aV\u51e4
aV\u776b
aV\u4e71
aV\u7ff0
aV\u54f2
aV\u7075
aV\u81f4
aV\u6d77
aV\u52a8
aV\u9a79
aV\u5bf8
aV\u8f7b
aV\u96fe
aV\u547d
aV\u521a
aV\u897f
aV\u62fe
asS'chars1'
p4
(lp5
V\u6000
aV\u6302
aV\u8c08
aV\u968f
aV\u8302
aV\u6297
aV\u6599
aV\u871a
aV\u6d1e
aV\u9020
aV\u77a5
aV\u7f2a
aV\u4f5c
aV\u6cb3
aV\u6b32
aV\u6e34
aV\u7136
aV\u573a
aV\u7ebf
aV\u53cd
aV\u79d1
aV\u82d7
aV\u5eb8
aV\u82e5
aV\u8bdd
aV\u51e1
aV\u77e5
aV\u5664
aV\u7f6a
aV\u63ed
aV\u626c
aV\u8870
aV\u8e74
aV\u5176
aV\u7eff
aV\u6101
aV\u8986
aV\u9890
aV\u7f15
aV\u5e94
aV\u8d45
aV\u9047
aV\u5faa
aV\u662f
aV\u9e9f
aV\u8d1e
aV\u9e3f
aV\u89c6
aV\u4fca
aV\u5bd2
aV\u9ed4
aV\u5178
aV\u6559
aV\u6c79
aV\u79e6
aV\u636d
aV\u666f
aV\u6ef4
aV\u51f6
aV\u9e7f
aV\u5dfe
aV\u6c89
aV\u4e0a
aV\u540e
aV\u9910
aV\u5e95
aV\u9ed8
aV\u8499
aV\u6518
aV\u8f9f
aV\u67af
aV\u80dc
aV\u8db3
aV\u79bb
aV\u9b3c
aV\u4e34
aV\u6cc9
aV\u7ed5
aV\u865a
aV\u8fdf
aV\u7262
aV\u5764
aV\u67ef
aV\u8df3
aV\u79fb
aV\u7afd
aV\u8001
aV\u8282
aV\u6d88
aV\u538c
aV\u4f1f
aV\u51a0
aV\u9523
aV\u4e1d
aV\u63ac
aV\u672f
aV\u8e35
aV\u5439
aV\u7cbe
aV\u7fc5
aV\u6c49
aV\u73cd
aV\u514b
aV\u4eca
aV\u524d
aV\u53cc
aV\u51e0
aV\u676f
aV\u5377
aV\u56fa
aV\u9f7f
aV\u8f89
aV\u518d
aV\u8f83
aV\u5c14
aV\u851a
aV\u5220
aV\u56a3
aV\u775a
aV\u78a7
aV\u62ab
aV\u6c34
aV\u79bd
aV\u6240
aV\u8e48
aV\u91cd
aV\u7ed3
aV\u6d3b
aV\u9664
aV\u5162
aV\u5b66
aV\u7fe9
aV\u8e3d
aV\u81ed
aV\u606c
aV\u8bf1
aV\u79fd
aV\u6301
aV\u6280
aV\u8d8a
aV\u7b11
aV\u8f9e
aV\u52a0
aV\u54a4
aV\u7f29
aV\u60ac
aV\u8d35
aV\u81c2
aV\u6545
aV\u8bc6
aV\u57ce
aV\u9b51
aV\u79d2
aV\u6c5f
aV\u8fde
aV\u72e0
aV\u5f69
aV\u626b
aV\u4e73
aV\u8d75
aV\u5077
aV\u53f6
aV\u76f8
aV\u95fa
aV\u597d
aV\u5ffe
aV\u4e89
aV\u738b
aV\u9a91
aV\u8e1e
aV\u5320
aV\u9022
aV\u5524
aV\u7f28
aV\u83ab
aV\u7c2a
aV\u65af
aV\u51b7
aV\u5236
aV\u7738
aV\u793c
aV\u53cb
aV\u714c
aV\u5b50
aV\u86d9
aV\u6bdb
aV\u72e1
aV\u5360
aV\u9ee9
aV\u60ed
aV\u8d74
aV\u5f15
aV\u5bfb
aV\u997c
aV\u8703
aV\u8584
aV\u4e09
aV\u900d
aV\u768e
aV\u9f13
aV\u6619
aV\u8d1f
aV\u5927
aV\u9e29
aV\u832b
aV\u66ae
aV\u72b6
aV\u60a0
aV\u4e49
aV\u74f6
aV\u904d
aV\u91cc
aV\u754f
aV\u76ce
aV\u5e7f
aV\u5f53
aV\u5c55
aV\u53e0
aV\u55e4
aV\u836b
aV\u606d
aV\u4f73
aV\u5177
aV\u8702
aV\u8e87
aV\u6697
aV\u5185
aV\u4f9d
aV\u4e1c
aV\u5ea7
aV\u5e3c
aV\u65c1
aV\u4ec7
aV\u89c9
aV\u5f52
aV\u8fdd
aV\u9762
aV\u7ee7
aV\u6df1
aV\u96f7
aV\u5cfb
aV\u5ffd
aV\u5e7c
aV\u7aff
aV\u8782
aV\u8305
aV\u4e07
aV\u6b8a
aV\u5f92
aV\u8098
aV\u7023
aV\u57a2
aV\u5929
aV\u58a8
aV\u8d31
aV\u804b
aV\u6043
aV\u91ce
aV\u9063
aV\u77e2
aV\u52e4
aV\u5de6
aV\u78e8
aV\u826f
aV\u6cf0
aV\u9677
aV\u90f8
aV\u7a7f
aV\u6602
aV\u558b
aV\u7a95
aV\u7b14
aV\u6797
aV\u6d9b
aV\u621a
aV\u5520
aV\u672c
aV\u6cb1
aV\u70b9
aV\u523a
aV\u8fc7
aV\u96cd
aV\u7b54
aV\u6f5c
aV\u5fe7
aV\u8d70
aV\u9178
aV\u5f7c
aV\u987e
aV\u6c86
aV\u6809
aV\u950b
aV\u708e
aV\u5c11
aV\u6717
aV\u6019
aV\u6d1b
aV\u6e1d
aV\u6f9c
aV\u662d
aV\u632f
aV\u4eb2
aV\u6f47
aV\u89c8
aV\u964d
aV\u90ce
aV\u6059
aV\u4e5d
aV\u8fdc
aV\u56e2
aV\u53e4
aV\u5ce6
aV\u60ee
aV\u8bf4
aV\u94f6
aV\u5e7d
aV\u7ffc
aV\u6781
aV\u540c
aV\u6218
aV\u811a
aV\u52a3
aV\u65ad
aV\u8fb1
aV\u4e30
aV\u9ebb
aV\u50cf
aV\u534e
aV\u5fd1
aV\u6258
aV\u65ed
aV\u60ef
aV\u636e
aV\u4ff1
aV\u4e70
aV\u53f9
aV\u9c7c
aV\u6084
aV\u960b
aV\u548c
aV\u5e90
aV\u5a13
aV\u5915
aV\u6298
aV\u7c27
aV\u9aa8
aV\u7cbc
aV\u5bbe
aV\u7f51
aV\u5955
aV\u8457
aV\u9761
aV\u56e0
aV\u5165
aV\u84ec
aV\u606f
aV\u4ef0
aV\u5e7b
aV\u51fa
aV\u6700
aV\u8a89
aV\u6597
aV\u8299
aV\u8f9b
aV\u9e26
aV\u7b28
aV\u582a
aV\u852c
aV\u8bb3
aV\u72b9
aV\u6740
aV\u60c5
aV\u57cb
aV\u754c
aV\u91cf
aV\u7ed1
aV\u9f50
aV\u5954
aV\u65d7
aV\u8fdb
aV\u805a
aV\u59bb
aV\u5760
aV\u53e3
aV\u5de7
aV\u5ae9
aV\u656c
aV\u626e
aV\u9676
aV\u7ffb
aV\u5c3e
aV\u59ff
aV\u9a7e
aV\u8482
aV\u8005
aV\u4e86
aV\u770b
aV\u540d
aV\u9b13
aV\u6696
aV\u609a
aV\u691f
aV\u97a0
aV\u94a2
aV\u7ea6
aV\u672b
aV\u7537
aV\u9f3b
aV\u5c3d
aV\u95f4
aV\u4ec6
aV\u82cd
aV\u5fd0
aV\u59d4
aV\u895f
aV\u94e2
aV\u9065
aV\u51e4
aV\u4e71
aV\u53f8
aV\u96fe
aV\u9010
aV\u9493
aV\u9614
aV\u609b
aV\u4f1a
aV\u665a
aV\u7126
aV\u5c38
aV\u5f3a
aV\u89c1
aV\u6840
aV\u85c9
aV\u7ecf
aV\u91d1
aV\u9050
aV\u7591
aV\u9e64
aV\u5468
aV\u8bed
aV\u6d6e
aV\u6070
aV\u6674
aV\u8c03
aV\u5d16
aV\u9999
aV\u661f
aV\u98a0
aV\u5f25
aV\u8131
aV\u6735
aV\u66b4
aV\u5cb8
aV\u963f
aV\u9b4d
aV\u9e4f
aV\u76d4
aV\u83f2
aV\u66f4
aV\u7a77
aV\u72fc
aV\u6881
aV\u6001
aV\u6e85
aV\u7a8d
aV\u6c99
aV\u819b
aV\u4e1a
aV\u7f24
aV\u5026
aV\u7528
aV\u4faf
aV\u8dc3
aV\u4ec5
aV\u84c9
aV\u6548
aV\u79cb
aV\u90d1
aV\u96d5
aV\u5f64
aV\u8272
aV\u9876
aV\u51fb
aV\u6e05
aV\u6307
aV\u8086
aV\u868a
aV\u7a0d
aV\u5b8c
aV\u9011
aV\u8896
aV\u671f
aV\u7fa4
aV\u90a6
aV\u723d
aV\u4e45
aV\u80c6
aV\u594b
aV\u5bcc
aV\u52d2
aV\u6dd8
aV\u83dc
aV\u5367
aV\u95e8
aV\u96ea
aV\u67f4
aV\u517b
aV\u5efa
aV\u8a00
aV\u8c04
aV\u8700
aV\u6789
aV\u780c
aV\u9f0e
aV\u7391
aV\u7693
aV\u5112
aV\u8f99
aV\u4e18
aV\u629b
aV\u819d
aV\u7ba1
aV\u5c24
aV\u77a9
aV\u5e38
aV\u903c
aV\u6bc1
aV\u8346
aV\u7acb
aV\u53d1
aV\u9152
aV\u4e58
aV\u62db
aV\u675e
aV\u5be1
aV\u7ee3
aV\u5de5
aV\u50e7
aV\u77e9
aV\u5668
aV\u6cef
aV\u8f6e
aV\u6270
aV\u4e03
aV\u6709
aV\u7a0b
aV\u590d
aV\u5c0f
aV\u7f8e
aV\u6817
aV\u621b
aV\u4f9b
aV\u7aa0
aV\u9e23
aV\u9ca4
aV\u53a6
aV\u7729
aV\u5bb6
aV\u5f39
aV\u7eb8
aV\u523b
aV\u70bc
aV\u89c2
aV\u6d45
aV\u6cc4
aV\u8749
aV\u5351
aV\u72d0
aV\u8857
aV\u6bd6
aV\u4f59
aV\u60dc
aV\u7ae0
aV\u53e6
aV\u9769
aV\u96e8
aV\u5e26
aV\u7a9c
aV\u7ef8
aV\u517d
aV\u4f83
aV\u6708
aV\u5012
aV\u4f18
aV\u809d
aV\u7ca5
aV\u5728
aV\u88ad
aV\u6daf
aV\u62b1
aV\u87b3
aV\u53bb
aV\u5c3a
aV\u4fc3
aV\u6842
aV\u56fe
aV\u4ed9
aV\u611a
aV\u6beb
aV\u8def
aV\u82f1
aV\u67f3
aV\u767e
aV\u7b0b
aV\u601d
aV\u5ba0
aV\u8d2f
aV\u60b2
aV\u5937
aV\u96be
aV\u7b4b
aV\u7ece
aV\u5251
aV\u8fd8
aV\u9ed1
aV\u5c65
aV\u7167
aV\u9669
aV\u7977
aV\u957f
aV\u76fe
aV\u6687
aV\u9c8b
aV\u5591
aV\u5410
aV\u679d
aV\u9531
aV\u9526
aV\u5028
aV\u6cab
aV\u532a
aV\u6234
aV\u7eb7
aV\u5e08
aV\u79b9
aV\u52bf
aV\u86c7
aV\u5ccb
aV\u5fcd
aV\u9752
aV\u82df
aV\u5f62
aV\u5be5
aV\u60f3
aV\u59f9
aV\u6d01
aV\u5315
aV\u6b9a
aV\u671d
aV\u821f
aV\u8eac
aV\u8033
aV\u5e37
aV\u6d41
aV\u6843
aV\u5c4b
aV\u7ecc
aV\u9053
aV\u5355
aV\u88d8
aV\u8bda
aV\u53ea
aV\u6f6d
aV\u76fc
aV\u82b1
aV\u6c81
aV\u8d2a
aV\u8089
aV\u8c89
aV\u68d8
aV\u871c
aV\u7d20
aV\u7aa5
aV\u722a
aV\u4ead
aV\u5fb7
aV\u5938
aV\u55bb
aV\u773c
aV\u503e
aV\u6446
aV\u6148
aV\u54d1
aV\u675c
aV\u79e3
aV\u7ae5
aV\u5b64
aV\u5168
aV\u8f6c
aV\u6570
aV\u81f3
aV\u7978
aV\u95fb
aV\u7a7a
aV\u56fd
aV\u8c01
aV\u6b84
aV\u788e
aV\u5411
aV\u4f17
aV\u679c
aV\u7ea2
aV\u5ba4
aV\u8d2b
aV\u6e2d
aV\u65b0
aV\u753b
aV\u733f
aV\u8c41
aV\u6ec2
aV\u8bc4
aV\u8747
aV\u86fe
aV\u61c8
aV\u5fcc
aV\u9b4f
aV\u98ce
aV\u5ea6
aV\u8471
aV\u66f2
aV\u9879
aV\u767d
aV\u4e00
aV\u6208
aV\u5195
aV\u9014
aV\u609f
aV\u9e20
aV\u7d22
aV\u94a7
aV\u7726
aV\u73a9
aV\u8eab
aV\u82b3
aV\u5bb9
aV\u593a
aV\u743c
aV\u8fc1
aV\u89c5
aV\u814a
aV\u71d5
aV\u86db
aV\u695a
aV\u60df
aV\u5fe1
aV\u5ae3
aV\u67f1
aV\u6572
aV\u5bf9
aV\u547c
aV\u6d82
aV\u6309
aV\u7115
aV\u849c
aV\u52a8
aV\u963b
aV\u6447
aV\u8349
aV\u9ccc
aV\u6c57
aV\u9aa5
aV\u5de2
aV\u9965
aV\u97e6
aV\u8273
aV\u7b79
aV\u767b
aV\u707f
aV\u8e81
aV\u6885
aV\u6587
aV\u798f
aV\u4e16
aV\u821e
aV\u9f20
aV\u5ba3
aV\u55a7
aV\u7626
aV\u52a9
aV\u77bb
aV\u54bd
aV\u4ec1
aV\u6c42
aV\u88c5
aV\u804a
aV\u76d1
aV\u5750
aV\u5154
aV\u6e56
aV\u5065
aV\u84dd
aV\u8feb
aV\u6770
aV\u5df7
aV\u7af9
aV\u987a
aV\u51ff
aV\u4e01
aV\u8c82
aV\u590f
aV\u6d17
aV\u671b
aV\u659c
aV\u9e21
aV\u7825
aV\u5229
aV\u6f2b
aV\u90aa
aV\u8c2d
aV\u7eb6
aV\u89c4
aV\u60ca
aV\u5fe0
aV\u90af
aV\u7269
aV\u53e8
aV\u81f4
aV\u9a79
aV\u5bf8
aV\u547d
aV\u9000
aV\u9a87
aV\u820c
aV\u6c93
aV\u8f95
aV\u6e14
aV\u5b9d
aV\u5e9f
aV\u8c28
aV\u5cb3
aV\u65b9
aV\u673a
aV\u8bbd
aV\u94c3
aV\u5c48
aV\u89d1
aV\u72d7
aV\u575a
aV\u5bdd
aV\u6362
aV\u67e5
aV\u73ed
aV\u5ff5
aV\u5e74
aV\u6478
aV\u5403
aV\u7684
aV\u5a07
aV\u5986
aV\u7f8a
aV\u4e94
aV\u9519
aV\u9a9c
aV\u9e1f
aV\u80a0
aV\u72ac
aV\u5931
aV\u6237
aV\u6539
aV\u84b8
aV\u53c2
aV\u96c4
aV\u604b
aV\u6bd2
aV\u4f55
aV\u6ed4
aV\u5dde
aV\u6765
aV\u89e6
aV\u6d69
aV\u706b
aV\u72ec
aV\u95ee
aV\u9971
aV\u58f0
aV\u7ef4
aV\u9704
aV\u5b87
aV\u7c89
aV\u6d93
aV\u4e95
aV\u7518
aV\u80a1
aV\u8d28
aV\u8e2a
aV\u5a32
aV\u7eb5
aV\u83b7
aV\u4fbf
aV\u9634
aV\u90c1
aV\u96c5
aV\u7bc7
aV\u9e4a
aV\u62cd
aV\u53d7
aV\u5b5c
aV\u80e1
aV\u7f3a
aV\u72ed
aV\u9970
aV\u6076
aV\u667a
aV\u9001
aV\u8840
aV\u5c09
aV\u820d
aV\u638c
aV\u6811
aV\u5317
aV\u5598
aV\u5b9c
aV\u5f1f
aV\u6021
aV\u6625
aV\u68a6
aV\u72c2
aV\u9645
aV\u6bcd
aV\u814b
aV\u624d
aV\u674f
aV\u6851
aV\u8fd4
aV\u5357
aV\u9cde
aV\u6563
aV\u6b67
aV\u516b
aV\u4eea
aV\u74ee
aV\u79f0
aV\u60f6
aV\u4f7f
aV\u6cfe
aV\u5200
aV\u5404
aV\u4e2d
aV\u800c
aV\u6c14
aV\u5316
aV\u751a
aV\u7c9f
aV\u8424
aV\u52ab
aV\u6d2a
aV\u7eb3
aV\u683c
aV\u75c5
aV\u674e
aV\u5356
aV\u6162
aV\u65e5
aV\u6b66
aV\u8fe9
aV\u6d6a
aV\u9a70
aV\u7c41
aV\u5531
aV\u808c
aV\u4e13
aV\u989c
aV\u7f9e
aV\u6321
aV\u522b
aV\u542f
aV\u8fbe
aV\u5341
aV\u5bc6
aV\u624b
aV\u80cc
aV\u89d2
aV\u9057
aV\u53d6
aV\u76d8
aV\u9524
aV\u8361
aV\u516d
aV\u5e73
aV\u5c0a
aV\u660e
aV\u9699
aV\u989d
aV\u591c
aV\u6320
aV\u4e3e
aV\u9042
aV\u614c
aV\u85cf
aV\u864e
aV\u6cd5
aV\u9738
aV\u6062
aV\u53eb
aV\u6c6a
aV\u70ed
aV\u516c
aV\u8069
aV\u6276
aV\u697c
aV\u4e7e
aV\u7405
aV\u5584
aV\u5907
aV\u6f13
aV\u5e9e
aV\u63a0
aV\u8425
aV\u65a4
aV\u6e29
aV\u51ac
aV\u552f
aV\u76ae
aV\u5a31
aV\u70c2
aV\u5947
aV\u7cca
aV\u604d
aV\u654f
aV\u4f53
aV\u65cf
aV\u536b
aV\u6cea
aV\u706d
aV\u76ee
aV\u5df4
aV\u6b7b
aV\u5f81
aV\u878d
aV\u610e
aV\u7199
aV\u5e1c
aV\u7a9f
aV\u60a3
aV\u63a5
aV\u54ab
aV\u5706
aV\u97ad
aV\u72af
aV\u5389
aV\u6536
aV\u8038
aV\u6cbb
aV\u633a
aV\u7ec7
aV\u614e
aV\u6dd1
aV\u76d7
aV\u9cb8
aV\u535a
aV\u603b
aV\u795e
aV\u6b6a
aV\u77ed
aV\u5df1
aV\u58f3
aV\u9a74
aV\u6cfb
aV\u9501
aV\u9003
aV\u8c6a
aV\u5305
aV\u670d
aV\u868c
aV\u6c90
aV\u539a
aV\u7f1d
aV\u5e9c
aV\u6325
aV\u4e27
aV\u68a8
aV\u542b
aV\u60b8
aV\u83ba
aV\u54c0
aV\u5949
aV\u6d51
aV\u70d8
aV\u7edc
aV\u54a7
aV\u526f
aV\u5cf0
aV\u65f6
aV\u8179
aV\u8f7d
aV\u5c06
aV\u7099
aV\u521a
aV\u62a5
aV\u4fa7
aV\u6a2a
aV\u9532
aV\u8138
aV\u4f3c
aV\u8bbf
aV\u94c1
aV\u500d
aV\u568e
aV\u7edd
aV\u585e
aV\u793a
aV\u62e5
aV\u56ed
aV\u5f13
aV\u53ef
aV\u906e
aV\u5e72
aV\u6dfb
aV\u827a
aV\u5401
aV\u7682
aV\u7384
aV\u5e1d
aV\u589e
aV\u6ca6
aV\u6829
aV\u5c31
aV\u8d3b
aV\u4e3d
aV\u56f4
aV\u834f
aV\u6bd4
aV\u5b5f
aV\u98de
aV\u65e0
aV\u97ec
aV\u5c71
aV\u5973
aV\u5782
aV\u5b89
aV\u6e10
aV\u8a93
aV\u6d12
aV\u711a
aV\u76db
aV\u6620
aV\u6ca7
aV\u4f26
aV\u8ba9
aV\u542c
aV\u70af
aV\u7834
aV\u6b3e
aV\u6fe1
aV\u52c3
aV\u8fd1
aV\u4e50
aV\u515a
aV\u5ddd
aV\u98df
aV\u62e3
aV\u8f66
aV\u95ed
aV\u9e70
aV\u8212
aV\u4efb
aV\u7c07
aV\u7a88
aV\u4f11
aV\u6e90
aV\u9c9c
aV\u5b9e
aV\u5f31
aV\u7a33
aV\u8339
aV\u4e3b
aV\u81ba
aV\u8bbe
aV\u96c0
aV\u5145
aV\u9b49
aV\u664b
aV\u51cc
aV\u6761
aV\u6263
aV\u8165
aV\u706f
aV\u5f71
aV\u7ef0
aV\u5df2
aV\u9700
aV\u5e06
aV\u818f
aV\u4e91
aV\u9616
aV\u901a
aV\u63a3
aV\u80a5
aV\u6124
aV\u682a
aV\u5934
aV\u62b9
aV\u6cbd
aV\u8d3c
aV\u96c1
aV\u5144
aV\u73e0
aV\u654c
aV\u6bd3
aV\u7656
aV\u505a
aV\u6e3a
aV\u4e66
aV\u77eb
aV\u54ed
aV\u5f70
aV\u9974
aV\u65f7
aV\u6cfd
aV\u7601
aV\u5d07
aV\u5b88
aV\u670b
aV\u840d
aV\u610f
aV\u5219
aV\u5c1d
aV\u543c
aV\u6025
aV\u8d27
aV\u4ea6
aV\u8239
aV\u59cb
aV\u5343
aV\u7ec6
aV\u5a49
aV\u8fd0
aV\u76d6
aV\u7259
aV\u53d8
aV\u7ade
aV\u8363
aV\u8be8
aV\u776b
aV\u72ee
aV\u8f7b
aV\u60fa
aV\u897f
aV\u7981
aV\u5f85
aV\u5106
aV\u5408
aV\u6614
aV\u5916
aV\u5d99
aV\u5c18
aV\u7f1a
aV\u6b22
aV\u4e24
aV\u65a9
aV\u672a
aV\u7bad
aV\u5634
aV\u6c38
aV\u653e
aV\u79c1
aV\u9b42
aV\u5fc5
aV\u5e44
aV\u52c7
aV\u5448
aV\u68cb
aV\u8bcd
aV\u6d4e
aV\u6050
aV\u8352
aV\u7956
aV\u6ee5
aV\u76df
aV\u6ce3
aV\u6b62
aV\u8fe5
aV\u58eb
aV\u9a6c
aV\u97f5
aV\u5207
aV\u9488
aV\u680b
aV\u8e0f
aV\u9996
aV\u4f25
aV\u4ea4
aV\u67aa
aV\u6349
aV\u7433
aV\u6cb8
aV\u803b
aV\u5bc2
aV\u9ec4
aV\u4e4f
aV\u63d2
aV\u4ee4
aV\u586b
aV\u5dee
aV\u5171
aV\u5473
aV\u76f4
aV\u5f04
aV\u6212
aV\u8695
aV\u6714
aV\u7b97
aV\u7816
aV\u519b
aV\u529d
aV\u731c
aV\u541e
aV\u4f24
aV\u6026
aV\u4e3a
aV\u62bd
aV\u58c1
aV\u6b4c
aV\u60d1
aV\u4f0f
aV\u7965
aV\u51db
aV\u745e
aV\u4ee5
aV\u7aed
aV\u5170
aV\u5272
aV\u8bf7
aV\u837c
aV\u5409
aV\u6f0f
aV\u9896
aV\u521d
aV\u771f
aV\u749e
aV\u6821
aV\u8d23
aV\u8327
aV\u60a6
aV\u592b
aV\u5f2f
aV\u51b0
aV\u5533
aV\u9635
aV\u571f
aV\u6db8
aV\u4eba
aV\u79c0
aV\u9e45
aV\u5347
aV\u76ca
aV\u82d2
aV\u6655
aV\u67d4
aV\u5b57
aV\u6367
aV\u6469
aV\u51f0
aV\u9573
aV\u907f
aV\u8c79
aV\u5b81
aV\u5c04
aV\u6210
aV\u9f99
aV\u5e18
aV\u529b
aV\u949f
aV\u971e
aV\u8ba1
aV\u5230
aV\u75b5
aV\u7434
aV\u8fb9
aV\u6e38
aV\u5942
aV\u9648
aV\u884c
aV\u4f4e
aV\u85d5
aV\u5fd9
aV\u975e
aV\u4ee3
aV\u8366
aV\u6668
aV\u7f6e
aV\u53f1
aV\u8ff9
aV\u5e03
aV\u5982
aV\u5386
aV\u7709
aV\u6311
aV\u6b21
aV\u8d25
aV\u6027
aV\u85aa
aV\u592d
aV\u5fae
aV\u9633
aV\u51b2
aV\u7535
aV\u6837
aV\u7a74
aV\u9b41
aV\u56ca
aV\u5047
aV\u5f20
aV\u4fce
aV\u62d0
aV\u6653
aV\u7ed8
aV\u725b
aV\u5371
aV\u74f4
aV\u8877
aV\u87fe
aV\u7a81
aV\u5802
aV\u5206
aV\u7708
aV\u6b8b
aV\u4e0e
aV\u6291
aV\u6012
aV\u7f18
aV\u8fa3
aV\u8822
aV\u8d24
aV\u6728
aV\u5bab
aV\u4f38
aV\u5fc3
aV\u91c7
aV\u6bcb
aV\u4e4e
aV\u8350
aV\u67d3
aV\u6052
aV\u59d7
aV\u6ce5
aV\u8d64
aV\u72f1
aV\u5370
aV\u77f3
aV\u6f78
aV\u80fd
aV\u5a01
aV\u7b80
aV\u5f03
aV\u4e8e
aV\u6211
aV\u8713
aV\u731b
aV\u901d
aV\u751f
aV\u68a2
aV\u7d2f
aV\u7231
aV\u73b0
aV\u50b2
aV\u4e39
aV\u653f
aV\u5c45
aV\u8d4f
aV\u4ece
aV\u6251
aV\u63d0
aV\u5fd8
aV\u91dc
aV\u56de
aV\u82e6
aV\u59ec
aV\u75f4
aV\u81fc
aV\u66fe
aV\u5883
aV\u5f02
aV\u7687
aV\u9189
aV\u8e0c
aV\u6591
aV\u8093
aV\u5b58
aV\u5999
aV\u529f
aV\u6028
aV\u9732
aV\u6b3a
aV\u813e
aV\u51c9
aV\u534a
aV\u4e4c
aV\u7b5a
aV\u6de1
aV\u6068
aV\u9e6c
aV\u7aef
aV\u996e
aV\u4ef7
aV\u8d76
aV\u817e
aV\u9a84
aV\u8c0b
aV\u4e8c
aV\u5f99
aV\u9898
aV\u541b
aV\u969c
aV\u63aa
aV\u7f2d
aV\u7531
aV\u8bba
aV\u673d
aV\u9b45
aV\u9647
aV\u5149
aV\u70c8
aV\u53ca
aV\u4f4d
aV\u6551
aV\u6355
aV\u62d4
aV\u98d8
aV\u71ce
aV\u8863
aV\u6b65
aV\u9a6f
aV\u8bfa
aV\u627f
aV\u5c81
aV\u5e02
aV\u7406
aV\u8d8b
aV\u6295
aV\u5f97
aV\u5899
aV\u7a1a
aV\u971c
aV\u539f
aV\u6ca1
aV\u4e22
aV\u80a9
aV\u5ead
aV\u7530
aV\u9632
aV\u7334
aV\u5434
aV\u9b44
aV\u5446
aV\u5148
aV\u6dcb
aV\u5fd7
aV\u75db
aV\u5a5a
aV\u89e3
aV\u6b64
aV\u60e9
aV\u5deb
aV\u7eed
aV\u5f6c
aV\u8ff7
aV\u88f9
aV\u5c01
aV\u8bc1
aV\u9707
aV\u6d0b
aV\u4e0d
aV\u6590
aV\u4ea2
aV\u7d2b
aV\u5e2d
aV\u6839
aV\u653b
aV\u5c41
aV\u6e4d
aV\u7f57
aV\u9cd6
aV\u8c61
aV\u6069
aV\u74a7
aV\u58ee
aV\u5173
aV\u76f2
aV\u7275
aV\u7f81
aV\u9706
aV\u7389
aV\u4e8b
aV\u7f16
aV\u591a
aV\u559d
aV\u8d22
aV\u63a9
aV\u7532
aV\u65bd
aV\u7fc1
aV\u8054
aV\u56db
aV\u70df
aV\u4fe1
aV\u89e5
aV\u5d82
aV\u5288
aV\u4e0b
aV\u8c8c
aV\u6094
aV\u501f
aV\u76c6
aV\u75b2
aV\u8c37
aV\u803f
aV\u4e4b
aV\u91ca
aV\u6253
aV\u8155
aV\u9ad8
aV\u74dc
aV\u62e8
aV\u81ea
aV\u95f2
aV\u5175
aV\u5f00
aV\u5904
aV\u6691
aV\u781a
aV\u751c
aV\u4ea1
aV\u8c22
aV\u65a7
aV\u5cad
aV\u5730
aV\u853c
aV\u5c42
aV\u5944
aV\u7fe0
aV\u6750
aV\u8154
aV\u8865
aV\u77db
aV\u955c
aV\u6ee1
aV\u4f60
aV\u8be3
aV\u65e7
aV\u6666
aV\u62e9
aV\u5feb
aV\u5ced
aV\u79ef
aV\u53f3
aV\u50f5
aV\u5174
aV\u6df7
aV\u827e
aV\u5f80
aV\u5c82
aV\u5984
aV\u5507
aV\u7686
aV\u6d8c
aV\u6015
aV\u5e96
aV\u559c
aV\u6b23
aV\u63a8
aV\u873b
aV\u843d
aV\u613f
aV\u7e41
aV\u6d77
aV\u96c6
aV\u8651
aV\u64d2
aV\u6d25
aV\u775b
aV\u6b63
aV\u6ce2
aV\u6865
aV\u5373
aV\u7075
aV\u8d77
aV\u8bf8
aV\u62fe
asS'words2'
p6
(lp7
V\u5fb7\u8584\u624d\u758f
p8
aV\u52c9\u4e3a\u5176\u96be
p9
aV\u5bdf\u8a00\u89c2\u8272
p10
aV\u96be\u5144\u96be\u5f1f
p11
aV\u8ba9\u67a3\u63a8\u68a8
p12
aV\u4e0d\u901f\u4e4b\u5ba2
p13
aV\u5bd2\u5c71\u8f6c\u82cd\u7fe0
p14
aV\u8377\u98ce\u9001\u9999\u6c14
p15
aV\u9010\u9e7f\u4e2d\u539f
p16
aV\u522b\u6709\u5929\u5730
p17
aV\u65c1\u5f81\u535a\u5f15
p18
aV\u57ce\u4e0b\u4e4b\u76df
p19
aV\u4ea6\u6b65\u4ea6\u8d8b
p20
aV\u5bd2\u98ce\u5439\u65e5\u77ed
p21
aV\u7089\u706b\u7eaf\u9752
p22
aV\u5730\u767d\u98ce\u8272\u5bd2
p23
aV\u6625\u7720\u4e0d\u89c9\u6653
p24
aV\u4e08\u592b\u975e\u65e0\u6cea
p25
aV\u8c8c\u5408\u795e\u79bb
p26
aV\u6811\u6811\u7686\u79cb\u8272
p27
aV\u95e8\u6237\u4e4b\u89c1
p28
aV\u4ead\u768b\u6728\u53f6\u4e0b
p29
aV\u6295\u6843\u62a5\u674e
p30
aV\u4e0d\u901e\u4e4b\u5f92
p31
aV\u4e71\u7bad\u7a7f\u5fc3
p32
aV\u4ef0\u4e8b\u4fef\u755c
p33
aV\u72c2\u98ce\u5439\u6211\u5fc3
p34
aV\u5f00\u6e90\u8282\u6d41
p35
aV\u79bb\u7fa4\u7d22\u5c45
p36
aV\u8d70\u9a6c\u89c2\u82b1
p37
aV\u5357\u67ef\u4e00\u68a6
p38
aV\u501a\u9a6c\u53ef\u5f85
p39
aV\u8033\u719f\u80fd\u8be6
p40
aV\u80e1\u9a6c\u4f9d\u5317\u98ce
p41
aV\u804a\u4ee5\u81ea\u6170
p42
aV\u72ed\u8def\u76f8\u9022
p43
aV\u4e0d\u4fee\u8fb9\u5e45
p44
aV\u98ce\u96e8\u5982\u6666
p45
aV\u5b89\u8eab\u7acb\u547d
p46
aV\u5de5\u529b\u6089\u654c
p47
aV\u65e0\u6240\u4e0d\u4e3a
p48
aV\u4e71\u4e91\u4f4e\u8584\u66ae
p49
aV\u8eab\u4e34\u5176\u5883
p50
aV\u5982\u5750\u6625\u98ce
p51
aV\u610f\u5174\u9611\u73ca
p52
aV\u4ef0\u4e4b\u5f25\u9ad8
p53
aV\u6c81\u4eba\u5fc3\u813e
p54
aV\u6587\u8fc7\u9970\u975e
p55
aV\u6da3\u7136\u51b0\u91ca
p56
aV\u653e\u6d6a\u5f62\u9ab8
p57
aV\u82e6\u5fc3\u5b64\u8be3
p58
aV\u6beb\u53d1\u4e0d\u723d
p59
aV\u72af\u800c\u4e0d\u6821
p60
aV\u767b\u5802\u5165\u5ba4
p61
aV\u8361\u6c14\u56de\u80a0
p62
aV\u54c0\u611f\u987d\u8273
p63
aV\u4fef\u4ef0\u4e4b\u95f4
p64
aV\u7231\u5c4b\u53ca\u4e4c
p65
aV\u597d\u96e8\u77e5\u65f6\u8282
p66
aV\u6587\u4e0d\u52a0\u70b9
p67
aV\u4e0b\u6709\u6e05\u6c61\u6ce5
p68
aV\u5fcd\u4fca\u4e0d\u7981
p69
aV\u840d\u6c34\u76f8\u9022
p70
aV\u4ece\u5584\u5982\u767b
p71
aV\u5bd2\u57ce\u4e00\u4ee5\u773a
p72
aV\u5b88\u682a\u5f85\u5154
p73
aV\u79ef\u91cd\u96be\u8fd4
p74
aV\u60e8\u6de1\u7ecf\u8425
p75
aV\u53f9\u4e3a\u89c2\u6b62
p76
aV\u65e2\u5f80\u4e0d\u548e
p77
aV\u83ab\u9006\u4e4b\u4ea4
p78
aV\u66fe\u7ecf\u6ca7\u6851
p79
aV\u6c34\u6027\u6768\u82b1
p80
aV\u6325\u6d12\u81ea\u5982
p81
aV\u5c3e\u5927\u4e0d\u6389
p82
aV\u62d6\u513f\u5e26\u5973
p83
aV\u5de7\u8a00\u4ee4\u8272
p84
aV\u9ec4\u949f\u5927\u5415
p85
aV\u83ab\u8877\u4e00\u662f
p86
aV\u660e\u65e5\u9ec4\u82b1
p87
aV\u67f3\u5782\u6c5f\u4e0a\u5f71
p88
aV\u6614\u95fb\u6d1e\u5ead\u6c34
p89
aV\u6ce2\u6f9c\u8001\u6210
p90
aV\u5fae\u96e8\u6c60\u5858\u89c1
p91
aV\u54c0\u800c\u4e0d\u4f24
p92
aV\u5e08\u5fc3\u81ea\u7528
p93
aV\u96be\u8a00\u4e4b\u9690
p94
aV\u604d\u7136\u5927\u609f
p95
aV\u62fe\u4eba\u7259\u6167
p96
aV\u66b4\u864e\u51af\u6cb3
p97
aV\u529f\u8d25\u5782\u6210
p98
aV\u8033\u6839\u6e05\u51c0
p99
aV\u955c\u6e56\u4e09\u767e\u91cc
p100
aV\u65e5\u6708\u4e4b\u884c
p101
aV\u957f\u6b4c\u5f53\u54ed
p102
aV\u6251\u6714\u8ff7\u79bb
p103
aV\u4ece\u4e95\u6551\u4eba
p104
aV\u660e\u54f2\u4fdd\u8eab
p105
aV\u5927\u76f8\u5f84\u5ead
p106
aV\u6ca7\u6d77\u6a2a\u6d41
p107
aV\u83ab\u9006\u4e8e\u5fc3
p108
aV\u535a\u89c2\u800c\u7ea6\u53d6
p109
aV\u54c0\u4e1d\u8c6a\u7af9
p110
aV\u5c71\u5149\u60a6\u9e1f\u6027
p111
aV\u8c08\u864e\u8272\u53d8
p112
aV\u6cb8\u53cd\u76c8\u5929
p113
aV\u5f80\u4e8b\u5df2\u6210\u7a7a
p114
aV\u4e00\u8863\u5e26\u6c34
p115
aV\u62ed\u76ee\u4ee5\u5f85
p116
aV\u7099\u624b\u53ef\u70ed
p117
aV\u5c71\u9e23\u8c37\u5e94
p118
aV\u5fcd\u75db\u5272\u7231
p119
aV\u81ea\u60ed\u5f62\u79fd
p120
aV\u63a8\u6d9b\u4f5c\u6d6a
p121
aV\u79ef\u5c38\u8349\u6728\u8165
p122
aV\u8c29\u4e0a\u4e0d\u8c29\u4e0b
p123
aV\u751f\u5f53\u4f5c\u4eba\u6770
p124
aV\u8bda\u60f6\u8bda\u6050
p125
aV\u4e00\u7b14\u62b9\u6740
p126
aV\u4e0d\u77e5\u6240\u4e91
p127
aV\u4eca\u5915\u4f55\u5915
p128
aV\u5bd2\u6885\u6700\u582a\u6068
p129
aV\u4ee5\u8033\u4ee3\u76ee
p130
aV\u4e09\u4eba\u6210\u864e
p131
aV\u6c34\u843d\u77f3\u51fa
p132
aV\u5e55\u5929\u5e2d\u5730
p133
aV\u7ede\u5c3d\u5fc3\u673a
p134
aV\u89c1\u5f02\u601d\u8fc1
p135
aV\u4e8c\u4e09\u5176\u5fb7
p136
aV\u4eba\u95f2\u6842\u82b1\u843d
p137
aV\u826f\u5de5\u5fc3\u82e6
p138
aV\u7ed8\u58f0\u7ed8\u8272
p139
aV\u74dc\u7530\u674e\u4e0b
p140
aV\u6e10\u971c\u98ce\u51c4\u7d27
p141
aV\u8fe2\u8fe2\u65b0\u79cb\u5915
p142
aV\u4e00\u56e2\u548c\u6c14
p143
aV\u65e0\u72ec\u6709\u5076
p144
aV\u6ee1\u9762\u6625\u98ce
p145
aV\u4e00\u7537\u9644\u4e66\u81f3
p146
aV\u5927\u505a\u6587\u7ae0
p147
aV\u91d1\u9488\u5ea6\u4eba
p148
aV\u4e1d\u957f\u9c7c\u8bef\u6050
p149
aV\u4fa7\u76ee\u800c\u89c6
p150
aV\u79ef\u6bc1\u9500\u9aa8
p151
aV\u4e00\u5021\u4e09\u53f9
p152
aV\u77f3\u7834\u5929\u60ca
p153
aV\u6b32\u5c06\u8f7b\u9a91\u9010
p154
aV\u4e0d\u89c9\u78a7\u5c71\u66ae
p155
aV\u6d6e\u5149\u63a0\u5f71
p156
aV\u5927\u5439\u5927\u64c2
p157
aV\u6302\u4e00\u6f0f\u4e07
p158
aV\u975e\u5f02\u4eba\u4efb
p159
aV\u4fe1\u7b14\u6d82\u9e26
p160
aV\u521a\u6b63\u4e0d\u963f
p161
aV\u60a0\u60a0\u6d1b\u9633\u9053
p162
aV\u6c5f\u5357\u65e0\u6240\u6709
p163
aV\u5bf9\u8584\u516c\u5802
p164
aV\u7267\u7ae5\u9a91\u9ec4\u725b
p165
aV\u5473\u540c\u56bc\u8721
p166
aV\u7b28\u9e1f\u5148\u98de
p167
aV\u6c14\u5473\u76f8\u6295
p168
aV\u8038\u4eba\u542c\u95fb
p169
aV\u6c42\u5168\u8d23\u5907
p170
aV\u5b64\u638c\u96be\u9e23
p171
aV\u66f2\u7ec8\u594f\u96c5
p172
aV\u4fe1\u8a93\u65e6\u65e6
p173
aV\u6b7b\u5f97\u5176\u6240
p174
aV\u6d6e\u4e91\u6e38\u5b50\u610f
p175
aV\u6d0b\u6d0b\u5927\u89c2
p176
aV\u85cf\u5934\u9732\u5c3e
p177
aV\u6d77\u5185\u5b58\u77e5\u5df1
p178
aV\u56da\u9996\u57a2\u9762
p179
aV\u8346\u6eaa\u767d\u77f3\u51fa
p180
aV\u72e1\u5154\u4e09\u7a9f
p181
aV\u6ee1\u6708\u98de\u660e\u955c
p182
aV\u7ec6\u96e8\u9c7c\u513f\u51fa
p183
aV\u706f\u7ea2\u9152\u7eff
p184
aV\u6240\u8c13\u4f0a\u4eba
p185
aV\u83ab\u9053\u4e0d\u6d88\u9b42
p186
aV\u9996\u9f20\u4e24\u7aef
p187
aV\u4e0d\u865e\u4e4b\u4e8b
p188
aV\u4e0d\u53ef\u6536\u62fe
p189
aV\u767d\u6bdb\u6d6e\u7eff\u6c34
p190
aV\u6625\u98ce\u5316\u96e8
p191
aV\u5fc3\u6f6e\u6f8e\u6e43
p192
aV\u8349\u4f4e\u91d1\u57ce\u96fe
p193
aV\u76f8\u4f9d\u4e3a\u547d
p194
aV\u4ecd\u601c\u6545\u4e61\u6c34
p195
aV\u62b1\u85aa\u6551\u706b
p196
aV\u5b89\u8d2b\u4e50\u9053
p197
aV\u6d0b\u6d0b\u6d12\u6d12
p198
aV\u8fc7\u72b9\u4e0d\u53ca
p199
aV\u8fc7\u6625\u98ce\u5341\u91cc
p200
aV\u96e8\u8272\u79cb\u6765\u5bd2
p201
aV\u661f\u5782\u5e73\u91ce\u9614
p202
aV\u547c\u4e4b\u6b32\u51fa
p203
aV\u98ce\u52b2\u89d2\u5f13\u9e23
p204
aV\u7d20\u6627\u5e73\u751f
p205
aV\u6708\u9ed1\u96c1\u98de\u9ad8
p206
aV\u63d0\u8981\u94a9\u7384
p207
aV\u73ed\u8346\u9053\u6545
p208
aV\u5c38\u4f4d\u7d20\u9910
p209
aV\u8f7b\u6b4c\u66fc\u821e
p210
aV\u51fa\u5947\u5236\u80dc
p211
aV\u8d4f\u5fc3\u4e50\u4e8b
p212
aV\u7247\u4e91\u5929\u5171\u8fdc
p213
aV\u9632\u5fae\u675c\u6e10
p214
aV\u9f99\u98de\u51e4\u821e
p215
aV\u4e0d\u7ffc\u800c\u98de
p216
aV\u6ea2\u7f8e\u4e4b\u8bcd
p217
aV\u5343\u91cc\u5171\u5982\u4f55
p218
aV\u91ce\u706b\u70e7\u4e0d\u5c3d
p219
aV\u58f0\u60c5\u5e76\u8302
p220
aV\u91ce\u6885\u70e7\u4e0d\u5c3d
p221
aV\u4eba\u751f\u4e0d\u76f8\u89c1
p222
aV\u52a0\u4eba\u4e00\u7b49
p223
aV\u5bd2\u968f\u4e00\u591c\u53bb
p224
aV\u4e0d\u5351\u4e0d\u4ea2
p225
aV\u7edd\u65e0\u4ec5\u6709
p226
aV\u67f4\u95e8\u95fb\u72ac\u5420
p227
aV\u5de7\u593a\u5929\u5de5
p228
aV\u6ce5\u6c99\u4ff1\u4e0b
p229
aV\u4e0d\u8096\u5b50\u5b59
p230
aV\u53e6\u773c\u76f8\u770b
p231
aV\u7f6e\u4e4b\u5ea6\u5916
p232
aV\u4ee4\u540d\u4e0d\u5f70
p233
aV\u4e0d\u761f\u4e0d\u706b
p234
aV\u9ad8\u5c71\u666f\u884c
p235
aV\u66ae\u4e91\u6625\u6811
p236
aV\u8033\u63d0\u9762\u547d
p237
aV\u5e73\u6613\u8fd1\u4eba
p238
aV\u9999\u95fb\u6d41\u6c34\u5904
p239
aV\u56e0\u4eba\u6210\u4e8b
p240
aV\u5f00\u95e8\u63d6\u76d7
p241
aV\u4e91\u971e\u51fa\u6d77\u66d9
p242
aV\u9053\u8def\u4ee5\u76ee
p243
aV\u79cb\u98ce\u751f\u6e2d\u6c34
p244
aV\u4e0d\u8d1f\u4f17\u671b
p245
aV\u6668\u5174\u7406\u8352\u79fd
p246
aV\u61d2\u6447\u767d\u7fbd\u6247
p247
aV\u7565\u53d8\u539f\u60c5
p248
aV\u5927\u542b\u7ec6\u5165
p249
aV\u58f0\u8272\u72ac\u9a6c
p250
aV\u5c61\u8bd5\u4e0d\u723d
p251
aV\u5c0f\u65f6\u4e0d\u8bc6\u6708
p252
aV\u5e94\u916c\u90fd\u4e0d\u6687
p253
aV\u522b\u5177\u5320\u5fc3
p254
aV\u72d7\u54ac\u5415\u6d1e\u5bbe
p255
aV\u5f31\u9f84\u5bc4\u4e8b\u5916
p256
aV\u6d45\u659f\u4f4e\u5531
p257
aV\u5343\u9524\u767e\u70bc
p258
aV\u62ab\u6c99\u62e3\u91d1
p259
aV\u5f85\u4ef7\u800c\u6cbd
p260
aV\u4e1d\u4e1d\u5165\u6263
p261
aV\u5fd8\u4e4e\u6240\u4ee5
p262
aV\u4f46\u613f\u4eba\u957f\u4e45
p263
aV\u56fd\u5bb6\u5de5\u5546\u5c40
p264
aV\u54cd\u5f7b\u4e91\u9704
p265
aV\u5947\u6587\u5171\u8d4f
p266
aV\u5947\u6587\u5171\u6b23\u8d4f
p267
aV\u6148\u6bcd\u624b\u4e2d\u7ebf
p268
aV\u9f0e\u529b\u76f8\u52a9
p269
aV\u655d\u5e1a\u81ea\u73cd
p270
aV\u8868\u91cc\u5c71\u6cb3
p271
aV\u6df1\u5c45\u4fef\u5939\u57ce
p272
aV\u9732\u4ece\u4eca\u591c\u767d
p273
aV\u5b89\u65f6\u5904\u987a
p274
aV\u725b\u90ce\u7ec7\u5973
p275
aV\u7ffb\u6c5f\u5012\u6d77
p276
aV\u5b89\u5c45\u4e50\u4e1a
p277
aV\u4e00\u6587\u4e0d\u540d
p278
aV\u9648\u8a00\u52a1\u53bb
p279
aV\u4e0d\u4ee5\u4e3a\u7136
p280
aV\u98ce\u96e8\u9001\u6625\u5f52
p281
aV\u5165\u6625\u624d\u4e03\u65e5
p282
aV\u60c5\u6295\u610f\u5408
p283
aV\u611f\u65f6\u82b1\u6e85\u6cea
p284
aV\u4e0d\u7edd\u5982\u7f15
p285
aV\u54c0\u5175\u5fc5\u80dc
p286
aV\u9189\u6708\u9891\u4e2d\u5723
p287
aV\u9a71\u9e21\u4e0a\u6811\u6728
p288
aV\u6ee1\u56ed\u6df1\u6d45\u8272
p289
aV\u53e3\u7891\u8f7d\u9053
p290
aV\u53d6\u6cd5\u4e8e\u4e0a
p291
aV\u97f3\u5bb9\u5b9b\u5728
p292
aV\u8083\u8083\u82b1\u7d6e\u665a
p293
aV\u767e\u722a\u6320\u5fc3
p294
aV\u4e0d\u4ee5\u4e3a\u610f
p295
aV\u6682\u4f34\u6708\u5c06\u5f71
p296
aV\u7ea2\u8c46\u751f\u5357\u56fd
p297
aV\u5c04\u4eba\u5148\u5c04\u9a6c
p298
aV\u9ad8\u5c71\u4ef0\u6b62
p299
aV\u5f62\u5f62\u8272\u8272
p300
aV\u6587\u60c5\u5e76\u8302
p301
aV\u7709\u9ad8\u773c\u4f4e
p302
aV\u6fc0\u6d4a\u626c\u6e05
p303
aV\u4eba\u7434\u4ff1\u4ea1
p304
aV\u6500\u8377\u5f04\u5176\u73e0
p305
aV\u6842\u6797\u98ce\u666f\u5f02
p306
aV\u4e00\u8a00\u4e5d\u9f0e
p307
aV\u5177\u4f53\u800c\u5fae
p308
aV\u676f\u5f13\u86c7\u5f71
p309
aV\u51c4\u51c4\u5c81\u66ae\u98ce
p310
aV\u4e0b\u91cc\u5df4\u4eba
p311
aV\u6350\u8eaf\u8d74\u56fd\u96be
p312
aV\u63a8\u6ce2\u52a9\u6f9c
p313
aV\u529b\u900f\u7eb8\u80cc
p314
aV\u534a\u65a4\u516b\u4e24
p315
aV\u5374\u4e4b\u4e0d\u606d
p316
aV\u626c\u626c\u6b62\u6cb8
p317
aV\u5982\u8292\u5728\u80cc
p318
aV\u7433\u7405\u6ee1\u76ee
p319
aV\u79cb\u83ca\u6709\u4f73\u8272
p320
aV\u6df1\u7a3d\u535a\u8003
p321
aV\u542b\u82f1\u5480\u534e
p322
aV\u79c0\u8272\u53ef\u9910
p323
aV\u4e0d\u679d\u4e0d\u8513
p324
aV\u5507\u4ea1\u9f7f\u5bd2
p325
aV\u7d22\u7136\u5be1\u5473
p326
aV\u5c71\u4e2d\u591c\u6765\u6708
p327
aV\u8bb3\u83ab\u5982\u6df1
p328
aV\u56f0\u77e5\u52c9\u884c
p329
aV\u9ad8\u5c71\u6d41\u6c34
p330
aV\u5ffd\u5ffd\u4e0d\u4e50
p331
aV\u5bab\u8863\u4ea6\u6709\u540d
p332
aV\u6148\u6bcd\u501a\u95e8\u60c5
p333
aV\u98de\u9ec4\u817e\u8fbe
p334
aV\u98ce\u6696\u9e1f\u58f0\u788e
p335
aV\u54c0\u9e3f\u904d\u91ce
p336
aV\u671b\u5c18\u83ab\u53ca
p337
aV\u5929\u9a6c\u884c\u7a7a
p338
aV\u904d\u4f53\u9cde\u4f24
p339
aV\u4e0b\u7b14\u6210\u7ae0
p340
aV\u91d1\u58f0\u7389\u632f
p341
aV\u9519\u843d\u6709\u81f4
p342
aV\u843d\u82b1\u4eba\u72ec\u7acb
p343
aV\u4ed8\u4e4b\u4e00\u70ac
p344
aV\u91c7\u83b2\u5357\u5858\u79cb
p345
aV\u767d\u98ce\u5439\u767d\u4e91
p346
aV\u962e\u56ca\u7f9e\u6da9
p347
aV\u6cbd\u540d\u9493\u8a89
p348
aV\u6d25\u6d25\u4e50\u9053
p349
aV\u7b49\u91cf\u9f50\u89c2
p350
aV\u826f\u91d1\u7f8e\u7389
p351
aV\u4ee4\u884c\u7981\u6b62
p352
aV\u4e09\u4e94\u660e\u6708\u6ee1
p353
aV\u591c\u6765\u98ce\u96e8\u58f0
p354
aV\u6c60\u5858\u751f\u6625\u8349
p355
aV\u79cb\u98ce\u5439\u4e0d\u5c3d
p356
aV\u6708\u8272\u9189\u8fdc\u5ba2
p357
aV\u6bcf\u51b5\u6108\u4e0b
p358
aV\u767d\u7389\u4e00\u676f\u9152
p359
aV\u9996\u5f53\u5176\u51b2
p360
aV\u65e0\u58f0\u65e0\u81ed
p361
aV\u5320\u5fc3\u72ec\u8fd0
p362
aV\u767d\u53d1\u60b2\u82b1\u843d
p363
aV\u671b\u5176\u9879\u80cc
p364
aV\u6842\u9999\u591a\u9732\u8944
p365
aV\u6625\u79cb\u7b14\u6cd5
p366
aV\u5bcc\u8d35\u4e0d\u80fd\u6deb
p367
aV\u5f31\u51a0\u5f04\u67d4\u7ff0
p368
aV\u6ee1\u9636\u82b3\u8349\u7eff
p369
aV\u4eba\u58f0\u9f0e\u6cb8
p370
aV\u851a\u4e3a\u5927\u89c2
p371
aV\u591a\u4e8b\u4e4b\u79cb
p372
aV\u5206\u5ead\u6297\u793c
p373
aV\u534a\u58c1\u89c1\u6d77\u65e5
p374
aV\u51fa\u795e\u5165\u5316
p375
aV\u62ab\u809d\u6ca5\u80c6
p376
aV\u695a\u6c34\u6e05\u82e5\u7a7a
p377
aV\u7c89\u58a8\u767b\u573a
p378
aV\u9ad8\u6b4c\u731b\u8fdb
p379
aV\u5938\u5938\u5176\u8bcd
p380
aV\u4e0d\u520a\u4e4b\u8bba
p381
aV\u6234\u6708\u62ab\u661f
p382
aV\u4fe1\u53e3\u96cc\u9ec4
p383
aV\u529f\u540d\u4e07\u91cc\u5916
p384
aV\u5c14\u865e\u6211\u8bc8
p385
aV\u9f99\u541f\u864e\u5578
p386
aV\u6d1b\u9633\u7eb8\u8d35
p387
aV\u5fc3\u733f\u610f\u9a6c
p388
aV\u5c11\u58ee\u4e0d\u52aa\u529b
p389
aV\u5982\u6570\u5bb6\u73cd
p390
aV\u4e0d\u6613\u4e4b\u8bba
p391
aV\u5984\u81ea\u83f2\u8584
p392
aV\u75be\u8a00\u5389\u8272
p393
aV\u949f\u9e23\u9f0e\u98df
p394
aV\u671d\u6765\u5165\u5ead\u6811
p395
aV\u5f39\u51a0\u76f8\u5e86
p396
aV\u6765\u65e5\u65b9\u957f
p397
aV\u6c5f\u4f5c\u9752\u7f57\u5e26
p398
aV\u6728\u843d\u96c1\u5357\u6e21
p399
aV\u5c0f\u5a03\u6491\u5c0f\u8247
p400
aV\u5f53\u65f6\u7236\u6bcd\u5ff5
p401
aV\u695a\u695a\u53ef\u601c
p402
aV\u51b0\u6e05\u7389\u6d01
p403
aV\u7f9a\u7f8a\u6302\u89d2
p404
aV\u4f11\u621a\u4e0e\u5171
p405
aV\u751f\u5f53\u590d\u6765\u5f52
p406
aV\u4e1d\u6069\u53d1\u6028
p407
aV\u5f53\u52a1\u4e4b\u6025
p408
aV\u957f\u5b89\u4e00\u7247\u6708
p409
aV\u4f11\u621a\u76f8\u5173
p410
aV\u4e0d\u803b\u4e0b\u95ee
p411
aV\u6d1e\u82e5\u89c2\u706b
p412
aV\u6c11\u6028\u6cb8\u817e
p413
aV\u63a8\u71e5\u5c45\u6e7f
p414
aV\u6728\u4eba\u77f3\u5fc3
p415
aV\u515a\u540c\u4f10\u5f02
p416
aV\u80f8\u65e0\u57ce\u5e9c
p417
aV\u6539\u5934\u6362\u9762
p418
aV\u60c5\u4e0d\u81ea\u80dc
p419
aV\u7eff\u6811\u6751\u8fb9\u5408
p420
aV\u4e1c\u98ce\u7740\u610f
p421
aV\u95ed\u95e8\u9020\u8f66
p422
aV\u5343\u592b\u6240\u6307
p423
aV\u5439\u6bdb\u6c42\u75b5
p424
aV\u4e0d\u89c1\u53bb\u5e74\u4eba
p425
aV\u7978\u8d77\u8427\u5899
p426
aV\u6539\u5f26\u66f4\u5f20
p427
aV\u7b14\u8d70\u9f99\u86c7
p428
aV\u52b3\u71d5\u5206\u98de
p429
aV\u7a17\u5b98\u91ce\u53f2
p430
aV\u4e00\u9f13\u4f5c\u6c14
p431
aV\u7af9\u8272\u6eaa\u4e0b\u7eff
p432
aV\u4e00\u6795\u9ec4\u7cb1
p433
aV\u9e7f\u6b7b\u8c01\u624b
p434
aV\u613f\u5f97\u4e00\u4eba\u5fc3
p435
aV\u597d\u6574\u4ee5\u6687
p436
aV\u65e5\u66ae\u82cd\u5c71\u8fdc
p437
aV\u54cd\u904f\u884c\u4e91
p438
aV\u7ec8\u5357\u9634\u5cad\u79c0
p439
aV\u629b\u7816\u5f15\u7389
p440
aV\u56fd\u5bb6\u7edf\u4e00
p441
aV\u6309\u90e8\u5c31\u73ed
p442
aV\u7a97\u524d\u660e\u6708\u5149
p443
aV\u5927\u5feb\u4eba\u5fc3
p444
aV\u8fdc\u89c2\u5c71\u6709\u8272
p445
aV\u9761\u9761\u4e4b\u97f3
p446
aV\u6349\u895f\u89c1\u8098
p447
aV\u4e0d\u53ef\u601d\u8bae
p448
aV\u9ec4\u949f\u6bc1\u5f03
p449
aV\u522e\u76ee\u76f8\u770b
p450
aV\u81ea\u60ed\u6d45\u8584
p451
aV\u6797\u6697\u8349\u60ca\u98ce
p452
aV\u5929\u9ad8\u5730\u539a
p453
aV\u603b\u89d2\u4e4b\u4ea4
p454
aV\u5507\u9f7f\u76f8\u4f9d
p455
aV\u98ce\u5149\u4eba\u4e0d\u89c9
p456
aV\u5145\u8033\u4e0d\u95fb
p457
aV\u591c\u96e8\u526a\u6625\u97ed
p458
aV\u5de7\u820c\u5982\u7c27
p459
aV\u7a77\u5f62\u5c3d\u76f8
p460
aV\u51b0\u58f6\u79cb\u6c34
p461
aV\u4e0d\u5411\u4e1c\u5c71\u4e45
p462
aV\u54b8\u4e0e\u7ef4\u65b0
p463
aV\u6dcb\u6f13\u5c3d\u81f4
p464
aV\u897f\u4e0a\u83b2\u82b1\u5c71
p465
aV\u884c\u5c06\u5c31\u6728
p466
aV\u8361\u80f8\u751f\u5c42\u4e91
p467
aV\u6d69\u5982\u70df\u6d77
p468
aV\u4ece\u957f\u8ba1\u8bae
p469
aV\u5929\u660e\u767b\u524d\u9014
p470
aV\u5982\u5c65\u8584\u51b0
p471
aV\u611f\u6fc0\u6d95\u96f6
p472
aV\u4e0d\u865e\u4e4b\u8a89
p473
aV\u56fd\u7834\u5c71\u6cb3\u5728
p474
aV\u5dee\u5f3a\u4eba\u610f
p475
aV\u660e\u6708\u51fa\u5929\u5c71
p476
aV\u5899\u89d2\u6570\u679d\u6885
p477
aV\u5b64\u4e91\u5c06\u91ce\u9e64
p478
aV\u5f92\u4e71\u4eba\u610f
p479
aV\u5165\u5ba4\u64cd\u6208
p480
aV\u4e00\u6761\u85e4\u5f84\u7eff
p481
aV\u65e0\u5984\u4e4b\u707e
p482
aV\u70c8\u58eb\u66ae\u5e74
p483
aV\u674e\u4ee3\u6843\u50f5
p484
aV\u9a87\u4eba\u542c\u95fb
p485
aV\u80f6\u67f1\u9f13\u745f
p486
aV\u4e00\u770b\u80a0\u4e00\u65ad
p487
aV\u62bd\u85aa\u6b62\u6cb8
p488
aV\u4eba\u6d6e\u4e8e\u4e8b
p489
aV\u91d1\u5170\u4e4b\u4ea4
p490
aV\u53d8\u672c\u52a0\u5389
p491
aV\u9890\u6307\u6c14\u4f7f
p492
aV\u66f2\u5f84\u901a\u5e7d\u5904
p493
aV\u5ba2\u8def\u9752\u5c71\u5916
p494
aV\u8981\u8a00\u4e0d\u70e6
p495
aV\u695a\u695a\u6709\u81f4
p496
aV\u6653\u770b\u7ea2\u6e7f\u5904
p497
aV\u60c5\u89c1\u52bf\u5c48
p498
aV\u67f3\u8272\u9ec4\u91d1\u5ae9
p499
aV\u5fc3\u6709\u4f59\u60b8
p500
aV\u559c\u7ed3\u91d1\u5170
p501
aV\u655d\u5e1a\u5343\u91d1
p502
aV\u65e0\u53ef\u539a\u975e
p503
aV\u53d1\u594b\u56fe\u5f3a
p504
aV\u6325\u624b\u81ea\u5179\u53bb
p505
aV\u7eff\u7af9\u542b\u65b0\u7c89
p506
aV\u4ea4\u6d45\u8a00\u6df1
p507
aV\u6625\u8349\u5e74\u5e74\u7eff
p508
aV\u6797\u82b1\u626b\u66f4\u843d
p509
aV\u4e0d\u4e0a\u4e0d\u4e0b
p510
aV\u8bd5\u95ee\u5377\u5e18\u4eba
p511
aV\u4e3e\u676f\u9080\u660e\u6708
p512
aV\u5706\u8377\u6d6e\u5c0f\u53f6
p513
aV\u54d1\u7136\u5931\u7b11
p514
aV\u5317\u98ce\u5229\u5982\u5251
p515
aV\u65e0\u4eba\u4e3a\u5f79
p516
aV\u6c5f\u6d41\u5929\u5730\u5916
p517
aV\u89c1\u4ec1\u89c1\u667a
p518
aV\u56e0\u96be\u89c1\u5de7
p519
aV\u532a\u5937\u6240\u601d
p520
aV\u4e0d\u60c5\u4e4b\u8bf7
p521
aV\u656c\u8c22\u4e0d\u654f
p522
aV\u8c01\u8a00\u5bf8\u8349\u5fc3
p523
aV\u843d\u82b1\u5982\u770b\u610f
p524
aV\u6614\u65f6\u4eba\u5df2\u6ca1
p525
aV\u795e\u6c14\u6d3b\u73b0
p526
aV\u91ce\u65f7\u5929\u4f4e\u6811
p527
aV\u671d\u95fb\u5915\u6b7b
p528
aV\u884c\u8272\u5306\u5306
p529
aV\u6b65\u4eba\u540e\u5c18
p530
aV\u592b\u5c3a\u6709\u6240\u77ed
p531
aV\u663e\u4eb2\u626c\u540d
p532
aV\u767d\u9a79\u8fc7\u9699
p533
aV\u767e\u65e0\u804a\u8d56
p534
aV\u79cb\u98ce\u8427\u745f
p535
aV\u4e0d\u6cd5\u5e38\u53ef
p536
aV\u767e\u8bfb\u4e0d\u538c
p537
aV\u66fe\u51e0\u4f55\u65f6
p538
aV\u5927\u8179\u4fbf\u4fbf
p539
aV\u8fd1\u4e61\u60c5\u66f4\u602f
p540
aV\u5f53\u65f6\u660e\u6708\u5728
p541
aV\u6ee1\u8179\u7ecf\u7eb6
p542
aV\u55a7\u95f9\u8986\u6625\u6d32
p543
aV\u5927\u800c\u5316\u4e4b
p544
aV\u53e4\u9053\u70ed\u80a0
p545
aV\u9ad8\u8c08\u9614\u8bba
p546
aV\u6539\u5f26\u6613\u8f99
p547
aV\u5c71\u968f\u5e73\u91ce\u5c3d
p548
aV\u8e0c\u8e87\u6ee1\u5fd7
p549
aV\u9c8d\u9c7c\u4e4b\u8086
p550
aV\u89e3\u843d\u4e09\u79cb\u53f6
p551
aV\u6587\u5c71\u4f1a\u6d77
p552
aV\u671f\u671f\u827e\u827e
p553
aV\u5b89\u6b65\u5f53\u8f66
p554
aV\u4e00\u5b54\u4e4b\u89c1
p555
aV\u4eba\u6ee1\u4e3a\u60a3
p556
aV\u6df1\u6797\u4eba\u4e0d\u77e5
p557
aV\u4e00\u5f97\u4e4b\u89c1
p558
aV\u591c\u6765\u5357\u98ce\u8d77
p559
aV\u89c1\u5fae\u77e5\u8457
p560
aV\u5927\u800c\u65e0\u5f53
p561
aV\u4e0d\u80dc\u5176\u70e6
p562
aV\u597d\u98ce\u51ed\u501f\u529b
p563
aV\u79cb\u58f0\u4e07\u6237\u7af9
p564
aV\u7a77\u800c\u540e\u5de5
p565
aV\u523b\u9aa8\u94ed\u5fc3
p566
aV\u91d1\u79d1\u7389\u5f8b
p567
aV\u4e00\u4e18\u4e4b\u8c89
p568
aV\u5fc3\u8361\u795e\u9a70
p569
aV\u6c34\u662f\u773c\u6ce2\u6a2a
p570
aV\u6765\u8005\u53ef\u8ffd
p571
aV\u71d5\u8349\u5982\u78a7\u4e1d
p572
aV\u8bfb\u4e66\u7834\u4e07\u5377
p573
aV\u9b3c\u65a7\u795e\u5de5
p574
aV\u4e0d\u7ecf\u4e4b\u8c08
p575
aV\u4e07\u4eba\u7a7a\u5df7
p576
aV\u6625\u98ce\u5f97\u610f
p577
aV\u8377\u9999\u9500\u665a\u590f
p578
aV\u4e49\u5f62\u4e8e\u8272
p579
aV\u76f8\u9001\u60c5\u65e0\u9650
p580
aV\u8033\u95fb\u76ee\u7779
p581
aV\u96e8\u8352\u6df1\u9662\u83ca
p582
aV\u7ec6\u8349\u5fae\u98ce\u5cb8
p583
aV\u4e0d\u53ef\u7406\u55bb
p584
aV\u76f8\u89c1\u6068\u665a
p585
aV\u5357\u8f95\u5317\u8f99
p586
aV\u8457\u4f5c\u7b49\u8eab
p587
aV\u60df\u5999\u60df\u8096
p588
aV\u76f8\u601d\u4f3c\u6d77\u6df1
p589
aV\u5929\u82b1\u4e71\u5760
p590
aV\u5fc3\u4f3c\u53cc\u4e1d\u7f51
p591
aV\u9f99\u86c7\u98de\u52a8
p592
aV\u6d77\u4e0a\u751f\u660e\u6708
p593
aV\u540d\u5c71\u4e8b\u4e1a
p594
aV\u5b89\u571f\u91cd\u8fc1
p595
aV\u751f\u7075\u6d82\u70ad
p596
aV\u51b7\u82e5\u51b0\u971c
p597
aV\u7267\u4eba\u9a71\u728a\u8fd4
p598
aV\u4e49\u65e0\u53cd\u987e
p599
aV\u7b14\u843d\u60ca\u98ce\u96e8
p600
aV\u5904\u5fc3\u79ef\u8651
p601
aV\u539a\u6b64\u8584\u5f7c
p602
aV\u522b\u6709\u7528\u5fc3
p603
aV\u98ce\u8d77\u4e91\u6d8c
p604
aV\u5b89\u4e4b\u82e5\u7d20
p605
aV\u65b9\u5174\u672a\u827e
p606
aV\u7a7f\u4e91\u88c2\u77f3
p607
aV\u8d77\u6b7b\u56de\u751f
p608
aV\u98ce\u9910\u9732\u5bbf
p609
aV\u70fd\u706b\u8fde\u4e09\u6708
p610
aV\u660e\u6708\u51c0\u677e\u6797
p611
aV\u5c71\u6c14\u65e5\u5915\u4f73
p612
aV\u6697\u6e21\u9648\u4ed3
p613
aV\u76ee\u4e0d\u4ea4\u776b
p614
aV\u62b1\u6b8b\u5b88\u7f3a
p615
aV\u5927\u65b9\u4e4b\u5bb6
p616
aV\u5149\u602a\u9646\u79bb
p617
aV\u7231\u5b50\u5fc3\u65e0\u5c3d
p618
aV\u6708\u4e0a\u67f3\u68a2\u5934
p619
aV\u610f\u6c14\u7528\u4e8b
p620
aV\u4e0d\u52a8\u58f0\u8272
p621
aV\u6ca7\u6d77\u4e00\u7c9f
p622
aV\u8feb\u4e0d\u53ca\u5f85
p623
aV\u9e1f\u5bbf\u6c60\u8fb9\u6811
p624
aV\u4f1a\u5f53\u51cc\u7edd\u9876
p625
aV\u597d\u4e3a\u4eba\u5e08
p626
aV\u7b14\u9163\u58a8\u9971
p627
aV\u75db\u5b9a\u601d\u75db
p628
aV\u767d\u6768\u591a\u60b2\u98ce
p629
aV\u767e\u8eab\u4f55\u8d4e
p630
aV\u7ed3\u53d1\u4e3a\u592b\u59bb
p631
aV\u7cbe\u536b\u586b\u6d77
p632
aV\u5c81\u5bd2\u77e5\u677e\u67cf
p633
aV\u86ca\u60d1\u4eba\u5fc3
p634
aV\u9057\u98ce\u6210\u7ade\u6e21
p635
aV\u957f\u6c5f\u4e00\u5e06\u8fdc
p636
aV\u660e\u671d\u671b\u4e61\u5904
p637
aV\u809d\u8111\u6d82\u5730
p638
aV\u6d77\u65e5\u751f\u6b8b\u591c
p639
aV\u4e0d\u4e00\u800c\u8db3
p640
aV\u96d5\u866b\u5c0f\u6280
p641
aV\u6025\u7ba1\u7e41\u5f26
p642
aV\u82d7\u800c\u4e0d\u79c0
p643
aV\u5f7b\u5934\u5f7b\u5c3e
p644
aV\u4eba\u5fc3\u5982\u9762
p645
aV\u65e5\u957f\u4e00\u7ebf
p646
aV\u5bf9\u6ce3\u725b\u8863
p647
aV\u6ca7\u6d77\u6851\u7530
p648
aV\u53c8\u9001\u738b\u5b59\u53bb
p649
aV\u6ee1\u57ce\u98ce\u96e8
p650
aV\u6da7\u6237\u5bc2\u65e0\u4eba
p651
aV\u9ec4\u82b1\u665a\u8282
p652
aV\u671d\u524d\u5915\u60d5
p653
aV\u6708\u51fa\u60ca\u5c71\u9e1f
p654
aV\u9053\u8c8c\u5cb8\u7136
p655
aV\u97ad\u8f9f\u5165\u91cc
p656
aV\u8349\u67af\u9e70\u773c\u75be
p657
aV\u6625\u98ce\u4e0d\u76f8\u8bc6
p658
aV\u660e\u6708\u677e\u95f4\u7167
p659
aV\u6797\u6797\u603b\u603b
p660
aV\u5927\u5feb\u6735\u9890
p661
aV\u4e3e\u5934\u671b\u660e\u6708
p662
aV\u7ffb\u4e91\u8986\u96e8
p663
aV\u706b\u4e2d\u53d6\u6817
p664
aV\u5f97\u9647\u671b\u8700
p665
aV\u706b\u6811\u94f6\u82b1\u5408
p666
aV\u5927\u5904\u843d\u58a8
p667
aV\u9e26\u9ed8\u96c0\u9759
p668
aV\u601d\u541b\u5982\u6d41\u6c34
p669
aV\u5343\u5c71\u9e1f\u98de\u7edd
p670
aV\u5947\u8d27\u53ef\u5c45
p671
aV\u5927\u6709\u6587\u7ae0
p672
aV\u8bd5\u6d47\u6865\u4e0b\u6c34
p673
aV\u6625\u8def\u96e8\u6dfb\u82b1
p674
aV\u72ec\u5177\u6167\u773c
p675
aV\u6291\u626c\u987f\u632b
p676
aV\u8bc4\u5934\u54c1\u8db3
p677
aV\u6625\u665a\u7eff\u91ce\u79c0
p678
aV\u6c57\u725b\u5145\u680b
p679
aV\u957f\u547d\u5bcc\u8d35
p680
aV\u6ca7\u6d77\u9057\u73e0
p681
aV\u6ea2\u4e8e\u8a00\u8868
p682
aV\u5426\u6781\u6cf0\u6765
p683
aV\u5357\u98ce\u4e0d\u7ade
p684
aV\u4e45\u5047\u4e0d\u5f52
p685
aV\u5c11\u4e0d\u66f4\u4e8b
p686
aV\u8eab\u5fc3\u4ea4\u75c5
p687
aV\u8fdf\u65e5\u6c5f\u5c71\u4e3d
p688
aV\u76ae\u91cc\u9633\u79cb
p689
aV\u65e0\u6240\u4e0d\u81f3
p690
aV\u4e91\u6765\u5c71\u66f4\u4f73
p691
aV\u4e0d\u540d\u4e00\u6587
p692
aV\u8749\u566a\u6797\u903e\u9759
p693
aV\u91d1\u76f8\u7389\u8d28
p694
aV\u51b7\u773c\u65c1\u89c2
p695
aV\u542b\u57a2\u5fcd\u8fb1
p696
aV\u6025\u4e0d\u53ef\u8010
p697
aV\u803f\u803f\u4e8e\u6000
p698
aV\u4e00\u9cde\u534a\u722a
p699
aV\u7edd\u5c11\u5206\u7518
p700
aV\u5c71\u62b9\u5fae\u4e91
p701
aV\u76f8\u53bb\u65e5\u5df2\u8fdc
p702
aV\u6b32\u7a77\u5343\u91cc\u76ee
p703
aV\u5165\u6211\u76f8\u601d\u95e8
p704
aV\u6d41\u6c34\u5982\u6709\u610f
p705
asS'words1'
p706
(lp707
V\u58a8\u5b88\u6210\u89c4
p708
aV\u9752\u5929\u767d\u65e5
p709
aV\u4e0d\u5b66\u65e0\u672f
p710
aV\u76db\u60c5\u6b3e\u5f85
p711
aV\u5148\u4eba\u540e\u5df1
p712
aV\u4e2d\u6d41\u7825\u67f1
p713
aV\u597d\u5b66\u4e0d\u5026
p714
aV\u5fcd\u4fca\u4e0d\u7981
p715
aV\u5faa\u5faa\u5584\u8bf1
p716
aV\u95ed\u6708\u7f9e\u82b1
p717
aV\u5f97\u610f\u5fd8\u5f62
p718
aV\u5343\u5c71\u4e07\u6c34
p719
aV\u606c\u4e0d\u77e5\u803b
p720
aV\u523b\u821f\u6c42\u5251
p721
aV\u5927\u5927\u54a7\u54a7
p722
aV\u6625\u5bd2\u6599\u5ced
p723
aV\u94c1\u77f3\u5fc3\u80a0
p724
aV\u5c3d\u5584\u5c3d\u7f8e
p725
aV\u8f66\u6c34\u9a6c\u9f99
p726
aV\u9a6c\u9996\u662f\u77bb
p727
aV\u9c9c\u5ae9\u6c34\u7075
p728
aV\u4e0a\u884c\u4e0b\u6548
p729
aV\u81ea\u5a31\u81ea\u4e50
p730
aV\u5446\u82e5\u6728\u9e21
p731
aV\u91cf\u4eba\u4e3a\u51fa
p732
aV\u56e0\u5730\u5236\u5b9c
p733
aV\u55e4\u4e4b\u4ee5\u9f3b
p734
aV\u77e5\u6cd5\u72af\u6cd5
p735
aV\u72d7\u5934\u519b\u5e08
p736
aV\u4e03\u5634\u516b\u820c
p737
aV\u4e00\u6cfb\u5343\u91cc
p738
aV\u955c\u82b1\u6c34\u6708
p739
aV\u7f29\u624b\u7f29\u811a
p740
aV\u4f11\u621a\u76f8\u5173
p741
aV\u5439\u6bdb\u6c42\u75b5
p742
aV\u5fc3\u65f7\u795e\u6021
p743
aV\u5343\u94a7\u4e00\u53d1
p744
aV\u843d\u53f6\u5f52\u6839
p745
aV\u9707\u8033\u6b32\u804b
p746
aV\u7a7a\u8c37\u5e7d\u5170
p747
aV\u79e6\u664b\u4e4b\u597d
p748
aV\u7a0b\u95e8\u7acb\u96ea
p749
aV\u60ca\u5f13\u4e4b\u9e1f
p750
aV\u5eb8\u4eba\u81ea\u6270
p751
aV\u8c08\u7b11\u98ce\u751f
p752
aV\u604d\u7136\u5927\u609f
p753
aV\u60ca\u6d9b\u9a87\u6d6a
p754
aV\u5fc3\u60ca\u8089\u8df3
p755
aV\u6251\u6714\u8ff7\u79bb
p756
aV\u529b\u4e89\u4e0a\u6e38
p757
aV\u9ad8\u9ad8\u5174\u5174
p758
aV\u524d\u56e0\u540e\u679c
p759
aV\u8c08\u864e\u8272\u53d8
p760
aV\u7eff\u6797\u597d\u6c49
p761
aV\u5c0f\u5fc3\u7ffc\u7ffc
p762
aV\u68a8\u82b1\u5e26\u96e8
p763
aV\u7099\u624b\u53ef\u70ed
p764
aV\u70b9\u77f3\u6210\u91d1
p765
aV\u8747\u8425\u72d7\u82df
p766
aV\u4eba\u4eba\u7686\u77e5
p767
aV\u6c34\u6cc4\u4e0d\u901a
p768
aV\u5165\u6728\u4e09\u5206
p769
aV\u968f\u9047\u800c\u5b89
p770
aV\u6625\u534e\u79cb\u5b9e
p771
aV\u7ed8\u58f0\u7ed8\u8272
p772
aV\u74dc\u7530\u674e\u4e0b
p773
aV\u9f99\u51e4\u5448\u7965
p774
aV\u91cd\u5ce6\u53e0\u5d82
p775
aV\u6708\u5149\u768e\u6d01
p776
aV\u904d\u5730\u5f00\u82b1
p777
aV\u753b\u86c7\u6dfb\u8db3
p778
aV\u660e\u67e5\u6697\u8bbf
p779
aV\u79fb\u82b1\u63a5\u6728
p780
aV\u5fd0\u5fd1\u4e0d\u5b89
p781
aV\u5de6\u9053\u65c1\u95e8
p782
aV\u6253\u8349\u60ca\u86c7
p783
aV\u8840\u6d41\u6210\u6cb3
p784
aV\u5982\u9c7c\u5f97\u6c34
p785
aV\u753b\u9f99\u70b9\u775b
p786
aV\u5927\u5f00\u773c\u754c
p787
aV\u5944\u5944\u4e00\u606f
p788
aV\u6709\u51e4\u6765\u4eea
p789
aV\u6162\u6761\u65af\u7406
p790
aV\u6c14\u5473\u76f8\u6295
p791
aV\u78a7\u7a7a\u4e07\u91cc
p792
aV\u771f\u5fc3\u8bda\u610f
p793
aV\u6d0b\u6d0b\u5927\u89c2
p794
aV\u70df\u96e8\u8499\u8499
p795
aV\u91d1\u521a\u6012\u76ee
p796
aV\u7eb7\u81f3\u6c93\u6765
p797
aV\u5173\u6000\u5907\u81f3
p798
aV\u9996\u9f20\u4e24\u7aef
p799
aV\u5973\u626e\u7537\u88c5
p800
aV\u79ef\u868a\u6210\u96f7
p801
aV\u5343\u8a00\u4e07\u8bed
p802
aV\u5ea6\u65e5\u5982\u5e74
p803
aV\u67af\u6728\u9022\u6625
p804
aV\u4e09\u4f4d\u4e00\u4f53
p805
aV\u8fc7\u72b9\u4e0d\u53ca
p806
aV\u843d\u843d\u5927\u65b9
p807
aV\u89e5\u7b79\u4ea4\u9519
p808
aV\u8d2a\u751f\u6015\u6b7b
p809
aV\u76ee\u9001\u624b\u6325
p810
aV\u84b8\u84b8\u65e5\u4e0a
p811
aV\u5c38\u4f4d\u7d20\u9910
p812
aV\u6f78\u7136\u6cea\u4e0b
p813
aV\u4e07\u7bad\u7a7f\u5fc3
p814
aV\u7fa4\u96c4\u9010\u9e7f
p815
aV\u4eba\u60c5\u4e16\u6545
p816
aV\u9632\u5fae\u675c\u6e10
p817
aV\u6cc9\u6c34\u4e01\u51ac
p818
aV\u7389\u5154\u4e1c\u5347
p819
aV\u7a77\u5175\u9ee9\u6b66
p820
aV\u95fb\u9e21\u8d77\u821e
p821
aV\u8033\u63d0\u9762\u547d
p822
aV\u671d\u4ee4\u5915\u6539
p823
aV\u6708\u8272\u8ff7\u4eba
p824
aV\u6570\u5178\u5fd8\u7956
p825
aV\u6c34\u5e73\u5982\u955c
p826
aV\u8840\u6218\u5230\u5e95
p827
aV\u9e70\u51fb\u957f\u7a7a
p828
aV\u7626\u9aa8\u5d99\u5ccb
p829
aV\u996e\u9e29\u6b62\u6e34
p830
aV\u5343\u9524\u767e\u70bc
p831
aV\u62e8\u4e71\u53cd\u6b63
p832
aV\u4e94\u5149\u5341\u8272
p833
aV\u82b1\u8a00\u5de7\u8bed
p834
aV\u5927\u597d\u6cb3\u5c71
p835
aV\u5fc3\u614c\u610f\u4e71
p836
aV\u725b\u90ce\u7ec7\u5973
p837
aV\u5fe0\u8d1e\u4e0d\u6e1d
p838
aV\u62b1\u85aa\u6551\u706b
p839
aV\u5bf8\u6b65\u96be\u884c
p840
aV\u6d17\u8033\u606d\u542c
p841
aV\u5947\u82b1\u5f02\u8349
p842
aV\u51b2\u950b\u9677\u9635
p843
aV\u4e0d\u7edd\u5982\u7f15
p844
aV\u865a\u6000\u82e5\u8c37
p845
aV\u81ea\u5f3a\u4e0d\u606f
p846
aV\u6f5c\u79fb\u9ed8\u5316
p847
aV\u81f3\u7406\u540d\u8a00
p848
aV\u7aed\u6cfd\u800c\u6e14
p849
aV\u5fc3\u529b\u8870\u7aed
p850
aV\u865a\u4e0e\u59d4\u86c7
p851
aV\u98ce\u5377\u6b8b\u4e91
p852
aV\u5fc3\u5fc3\u76f8\u6620
p853
aV\u65ad\u8896\u4e4b\u7656
p854
aV\u6b8a\u9014\u540c\u5f52
p855
aV\u632f\u804b\u53d1\u8069
p856
aV\u8986\u96e8\u7ffb\u4e91
p857
aV\u5f69\u971e\u7f24\u7eb7
p858
aV\u675e\u4eba\u5fe7\u5929
p859
aV\u5507\u4ea1\u9f7f\u5bd2
p860
aV\u4e49\u8584\u4e91\u5929
p861
aV\u9ad8\u5c71\u6d41\u6c34
p862
aV\u4e0a\u4e0b\u5176\u624b
p863
aV\u4ece\u5584\u5982\u6d41
p864
aV\u62b1\u5934\u9f20\u7a9c
p865
aV\u672b\u521d\u4e4b\u81f3
p866
aV\u5149\u5f69\u593a\u76ee
p867
aV\u4e00\u7bad\u53cc\u96d5
p868
aV\u65e5\u5f71\u897f\u659c
p869
aV\u9e20\u5360\u9e4a\u5de2
p870
aV\u5343\u519b\u4e07\u9a6c
p871
aV\u773c\u82b1\u7f2d\u4e71
p872
aV\u65e0\u4e0e\u4f26\u6bd4
p873
aV\u5b8c\u74a7\u5f52\u8d75
p874
aV\u80c6\u5927\u5305\u5929
p875
aV\u74ee\u4e2d\u6349\u9cd6
p876
aV\u72ec\u5177\u5320\u5fc3
p877
aV\u6307\u624b\u753b\u811a
p878
aV\u4eba\u5fc3\u4e0d\u53e4
p879
aV\u56db\u9762\u695a\u6b4c
p880
aV\u98ce\u96e8\u540c\u821f
p881
aV\u4e0d\u53ef\u591a\u5f97
p882
aV\u66b4\u8df3\u5982\u96f7
p883
aV\u591a\u5982\u725b\u6bdb
p884
aV\u751f\u673a\u52c3\u52c3
p885
aV\u753b\u997c\u5145\u9965
p886
aV\u80fd\u8bf4\u4f1a\u9053
p887
aV\u4f18\u80dc\u52a3\u8d25
p888
aV\u5984\u81ea\u83f2\u8584
p889
aV\u76f2\u4eba\u6478\u8c61
p890
aV\u521a\u610e\u81ea\u7528
p891
aV\u767e\u91cc\u6311\u4e00
p892
aV\u5e72\u67f4\u70c8\u706b
p893
aV\u76f8\u656c\u5982\u5bbe
p894
aV\u864e\u5934\u86c7\u5c3e
p895
aV\u9762\u5982\u571f\u8272
p896
aV\u81ea\u751f\u81ea\u706d
p897
aV\u4eba\u4eba\u81ea\u5371
p898
aV\u5fc3\u5982\u6b62\u6c34
p899
aV\u5e74\u5bcc\u529b\u5f3a
p900
aV\u6587\u901a\u5b57\u987a
p901
aV\u5e94\u63a5\u4e0d\u6687
p902
aV\u7434\u68cb\u4e66\u753b
p903
aV\u6043\u624d\u50b2\u7269
p904
aV\u745e\u96ea\u7eb7\u98de
p905
aV\u5c06\u5fc3\u6bd4\u5fc3
p906
aV\u6026\u7136\u5fc3\u52a8
p907
aV\u6ed4\u6ed4\u4e0d\u7edd
p908
aV\u8896\u624b\u65c1\u89c2
p909
aV\u539f\u539f\u672c\u672c
p910
aV\u9e4f\u7a0b\u4e07\u91cc
p911
aV\u5f00\u95e8\u89c1\u5c71
p912
aV\u96be\u5f97\u7cca\u6d82
p913
aV\u4e50\u6b64\u4e0d\u75b2
p914
aV\u53e4\u8272\u53e4\u9999
p915
aV\u516d\u9053\u8f6e\u56de
p916
aV\u54d1\u7136\u5931\u7b11
p917
aV\u8001\u9a6c\u8bc6\u9014
p918
aV\u5ba0\u8fb1\u4e0d\u60ca
p919
aV\u6709\u5907\u65e0\u60a3
p920
aV\u4eba\u751f\u5982\u68a6
p921
aV\u8702\u62e5\u800c\u81f3
p922
aV\u5fc3\u7075\u624b\u5de7
p923
aV\u56de\u7738\u4e00\u7b11
p924
aV\u4e07\u52ab\u4e0d\u590d
p925
aV\u6d69\u5982\u70df\u6d77
p926
aV\u8bf8\u5b50\u767e\u5bb6
p927
aV\u7f18\u6728\u6c42\u9c7c
p928
aV\u820d\u6211\u5176\u8c01
p929
aV\u5343\u53e4\u7edd\u5531
p930
aV\u5468\u800c\u590d\u59cb
p931
aV\u5df4\u5c71\u591c\u96e8
p932
aV\u5bd2\u51ac\u814a\u6708
p933
aV\u65e0\u6240\u4e0d\u5305
p934
aV\u9633\u5949\u9634\u8fdd
p935
aV\u4e00\u6280\u4e4b\u957f
p936
aV\u695a\u4e91\u6f47\u96e8
p937
aV\u5bb6\u55bb\u6237\u6653
p938
aV\u72ed\u8def\u76f8\u9022
p939
aV\u9890\u6307\u6c14\u4f7f
p940
aV\u5174\u9ad8\u91c7\u70c8
p941
aV\u5b64\u82b3\u81ea\u8d4f
p942
aV\u98ce\u6708\u65e0\u8fb9
p943
aV\u51e4\u6bdb\u9e9f\u89d2
p944
aV\u4ee5\u5106\u6548\u5c24
p945
aV\u5982\u96f7\u8d2f\u8033
p946
aV\u95fb\u540d\u9050\u8fe9
p947
aV\u514b\u5df1\u590d\u793c
p948
aV\u82cd\u7fe0\u633a\u62d4
p949
aV\u9b3c\u9b3c\u5d07\u5d07
p950
aV\u6c38\u5782\u4e0d\u673d
p951
aV\u671b\u6885\u6b62\u6e34
p952
aV\u996e\u98df\u7537\u5973
p953
aV\u5305\u7f57\u4e07\u8c61
p954
aV\u656c\u8c22\u4e0d\u654f
p955
aV\u5929\u4f26\u4e4b\u4e50
p956
aV\u820d\u672c\u6c42\u672b
p957
aV\u851a\u4e3a\u58ee\u89c2
p958
aV\u5e96\u4e01\u89e3\u725b
p959
aV\u56db\u901a\u516b\u8fbe
p960
aV\u9a6c\u8e0f\u98de\u71d5
p961
aV\u539a\u5fb7\u8f7d\u7269
p962
aV\u5206\u9053\u626c\u9573
p963
aV\u4e00\u65e5\u4e09\u79cb
p964
aV\u51ff\u58c1\u5077\u5149
p965
aV\u8e0c\u8e87\u6ee1\u5fd7
p966
aV\u4e5d\u6b7b\u4e00\u751f
p967
aV\u864e\u89c6\u7708\u7708
p968
aV\u53e3\u82e5\u60ac\u6cb3
p969
aV\u5434\u4e0b\u963f\u8499
p970
aV\u4e24\u5c0f\u65e0\u731c
p971
aV\u4e00\u4e18\u4e4b\u8c89
p972
aV\u4e00\u4e1d\u4e0d\u6302
p973
aV\u5927\u624b\u5927\u811a
p974
aV\u6b64\u8d77\u5f7c\u4f0f
p975
aV\u4e07\u4eba\u7a7a\u5df7
p976
aV\u98de\u86fe\u6251\u706b
p977
aV\u9e64\u7acb\u9e21\u7fa4
p978
aV\u5357\u8f95\u5317\u8f99
p979
aV\u98ce\u5c18\u4ec6\u4ec6
p980
aV\u58ee\u58eb\u65ad\u8155
p981
aV\u4e00\u751f\u4e00\u4e16
p982
aV\u98ce\u8c03\u96e8\u987a
p983
aV\u51cc\u4e91\u8212\u8bed
p984
aV\u7709\u6e05\u76ee\u79c0
p985
aV\u7ea2\u989c\u77e5\u5df1
p986
aV\u65e0\u5f71\u65e0\u8e2a
p987
aV\u6f2b\u5c71\u904d\u91ce
p988
aV\u7ffb\u817e\u6012\u543c
p989
aV\u800c\u7acb\u4e4b\u5e74
p990
aV\u624b\u8db3\u65e0\u63aa
p991
aV\u63d2\u7fc5\u96be\u98de
p992
aV\u60c5\u540c\u624b\u8db3
p993
aV\u7531\u6b64\u53ca\u5f7c
p994
aV\u7231\u4e0d\u91ca\u624b
p995
aV\u6ca7\u6d77\u4e00\u7c9f
p996
aV\u6bd4\u6bd4\u7686\u662f
p997
aV\u5929\u7ffb\u5730\u8986
p998
aV\u56e0\u5c0f\u5931\u5927
p999
aV\u53f6\u516c\u597d\u9f99
p1000
aV\u82b1\u7ea2\u67f3\u7eff
p1001
aV\u4e07\u5bb6\u706f\u706b
p1002
aV\u7ea6\u6cd5\u4e09\u7ae0
p1003
aV\u4e0d\u5410\u4e0d\u5feb
p1004
aV\u4e0d\u9a84\u4e0d\u8e81
p1005
aV\u89c1\u8d24\u601d\u9f50
p1006
aV\u9ec4\u9053\u5409\u65e5
p1007
aV\u8fd4\u749e\u5f52\u771f
p1008
aV\u97ad\u8f9f\u5165\u91cc
p1009
aV\u660e\u7738\u7693\u9f7f
p1010
aV\u96fe\u91cc\u770b\u82b1
p1011
aV\u6709\u7684\u653e\u77e2
p1012
aV\u8363\u8fb1\u4e0e\u5171
p1013
aV\u6021\u7136\u81ea\u5f97
p1014
aV\u4ee5\u5fb7\u670d\u4eba
p1015
aV\u87b3\u81c2\u6321\u8f66
p1016
aV\u76f8\u89c6\u800c\u7b11
p1017
aV\u5730\u52a8\u5c71\u6447
p1018
aV\u8863\u51a0\u79bd\u517d
p1019
aV\u5927\u6750\u5c0f\u7528
p1020
aV\u6c57\u725b\u5145\u680b
p1021
aV\u4e00\u4e1d\u4e0d\u82df
p1022
aV\u5929\u4e0b\u65e0\u53cc
p1023
aV\u4e94\u6e56\u56db\u6d77
p1024
aV\u6709\u95ee\u5fc5\u7b54
p1025
aV\u6e29\u6587\u5c14\u96c5
p1026
aV\u6b9a\u7cbe\u7aed\u8651
p1027
aV\u5f15\u72fc\u5165\u5ba4
p1028
aV\u4e00\u76ee\u5341\u884c
p1029
aV\u5929\u7f51\u6062\u6062
p1030
aV\u5220\u7e41\u5c31\u7b80
p1031
aV\u5f3a\u8bcd\u593a\u7406
p1032
aV\u4e3e\u91cd\u82e5\u8f7b
p1033
aV\u81ea\u77e5\u4e4b\u660e
p1034
aV\u7518\u5fc3\u60c5\u613f
p1035
aV\u7f8a\u5165\u864e\u53e3
p1036
aV\u4e00\u9cde\u534a\u722a
p1037
aV\u5927\u96ea\u5c01\u5c71
p1038
aV\u548c\u5149\u540c\u5c18
p1039
aV\u6e56\u5149\u6c34\u8272
p1040
aV\u6625\u6696\u82b1\u5f00
p1041
aV\u793c\u4eea\u4e4b\u90a6
p1042
aV\u8fd0\u7b79\u5e37\u5e44
p1043
aV\u7686\u5927\u6b22\u559c
p1044
aV\u5982\u91ca\u91cd\u8d1f
p1045
aV\u5206\u5ead\u6297\u793c
p1046
aV\u7fe0\u8272\u6b32\u6d41
p1047
aV\u7ea2\u989c\u8584\u547d
p1048
aV\u56e2\u7ed3\u53cb\u7231
p1049
aV\u5927\u6d6a\u6dd8\u6c99
p1050
aV\u5f00\u6e90\u8282\u6d41
p1051
aV\u8d70\u9a6c\u89c2\u82b1
p1052
aV\u6d77\u8a93\u5c71\u76df
p1053
aV\u98ce\u534e\u6b63\u8302
p1054
aV\u9f99\u9a6c\u7cbe\u795e
p1055
aV\u4ea1\u7f8a\u8865\u7262
p1056
aV\u7f8e\u5982\u51a0\u7389
p1057
aV\u5168\u529b\u4ee5\u8d74
p1058
aV\u4e00\u53f6\u77e5\u79cb
p1059
aV\u7231\u4e0d\u590d\u751f
p1060
aV\u5c71\u6e05\u6c34\u79c0
p1061
aV\u5927\u5feb\u4eba\u5fc3
p1062
aV\u591a\u624d\u591a\u827a
p1063
aV\u6c5f\u5c71\u5982\u753b
p1064
aV\u5b5f\u6bcd\u4e09\u8fc1
p1065
aV\u53f9\u4e3a\u89c2\u6b62
p1066
aV\u5c45\u529f\u81ea\u50b2
p1067
aV\u55a7\u817e\u98de\u6e85
p1068
aV\u5934\u91cd\u811a\u8f7b
p1069
aV\u585e\u7fc1\u5931\u9a6c
p1070
aV\u5341\u5168\u5341\u7f8e
p1071
aV\u53c2\u5dee\u4e0d\u9f50
p1072
aV\u591c\u90ce\u81ea\u5927
p1073
aV\u661f\u7f57\u68cb\u5e03
p1074
aV\u5929\u9ad8\u5730\u539a
p1075
aV\u4e09\u4e09\u4e24\u4e24
p1076
aV\u9b3c\u8ff7\u5fc3\u7a8d
p1077
aV\u706f\u4e0b\u591c\u7977
p1078
aV\u5f31\u4e0d\u7981\u98ce
p1079
aV\u7115\u7136\u4e00\u65b0
p1080
aV\u6bdb\u624b\u6bdb\u811a
p1081
aV\u5ff5\u6b32\u4f3c\u6bd2
p1082
aV\u4e5d\u9704\u4e91\u5916
p1083
aV\u5a01\u98ce\u51db\u51db
p1084
aV\u5c0f\u5bb6\u78a7\u7389
p1085
aV\u4e0d\u6298\u4e0d\u6263
p1086
aV\u6674\u7a7a\u4e07\u91cc
p1087
aV\u621b\u7136\u800c\u6b62
p1088
aV\u4e0d\u8ba1\u5176\u6570
p1089
aV\u4e00\u7f51\u6253\u5c3d
p1090
aV\u60c5\u975e\u5f97\u5df2
p1091
aV\u81ea\u60ed\u5f62\u79fd
p1092
aV\u5047\u516c\u6d4e\u79c1
p1093
aV\u65a4\u65a4\u8ba1\u8f83
p1094
aV\u901d\u8005\u5982\u65af
p1095
aV\u65e5\u65b0\u6708\u5f02
p1096
aV\u66f2\u7a81\u5f99\u85aa
p1097
aV\u53e3\u53e3\u58f0\u58f0
p1098
aV\u8bda\u60f6\u8bda\u6050
p1099
aV\u4f3c\u6709\u4f3c\u65e0
p1100
aV\u5982\u82b1\u4f3c\u7389
p1101
aV\u9752\u6885\u7af9\u9a6c
p1102
aV\u4e22\u76d4\u5f03\u7532
p1103
aV\u60f3\u65b9\u8bbe\u6cd5
p1104
aV\u6c34\u843d\u77f3\u51fa
p1105
aV\u8db3\u667a\u591a\u8c0b
p1106
aV\u5f20\u706f\u7ed3\u5f69
p1107
aV\u6ce5\u725b\u5165\u6d77
p1108
aV\u516b\u4ed9\u8fc7\u6d77
p1109
aV\u6c42\u5168\u8d23\u5907
p1110
aV\u4e0d\u5c48\u4e0d\u6320
p1111
aV\u989c\u7b4b\u67f3\u9aa8
p1112
aV\u5cf0\u56de\u8def\u8f6c
p1113
aV\u81ea\u547d\u4e0d\u51e1
p1114
aV\u6ee5\u7afd\u5145\u6570
p1115
aV\u968f\u6ce2\u9010\u6d41
p1116
aV\u5341\u9762\u57cb\u4f0f
p1117
aV\u626c\u7709\u5410\u6c14
p1118
aV\u7406\u5c48\u8bcd\u7a77
p1119
aV\u63a8\u9648\u51fa\u65b0
p1120
aV\u9aa8\u8089\u76f8\u6b8b
p1121
aV\u7709\u5f00\u773c\u7b11
p1122
aV\u4e8b\u534a\u529f\u500d
p1123
aV\u63a5\u8e35\u6469\u80a9
p1124
aV\u72d0\u7fa4\u72d7\u515a
p1125
aV\u4e0d\u95fb\u4e0d\u95ee
p1126
aV\u8086\u65e0\u5fcc\u60ee
p1127
aV\u5f02\u60f3\u5929\u5f00
p1128
aV\u4eba\u6b22\u9a6c\u53eb
p1129
aV\u81ea\u76f8\u77db\u76fe
p1130
aV\u4e5d\u4e94\u4e4b\u5c0a
p1131
aV\u767e\u5e74\u597d\u5408
p1132
aV\u540e\u4f1a\u65e0\u671f
p1133
aV\u80cc\u6c34\u4e00\u6218
p1134
aV\u97a0\u8eac\u5c3d\u7601
p1135
aV\u6ce2\u6f9c\u58ee\u9614
p1136
aV\u85cf\u5934\u9732\u5c3e
p1137
aV\u7a88\u7a95\u6dd1\u5973
p1138
aV\u72e1\u5154\u4e09\u7a9f
p1139
aV\u4e0d\u7ea6\u800c\u540c
p1140
aV\u706f\u7ea2\u9152\u7eff
p1141
aV\u9b3c\u8bdd\u8fde\u7bc7
p1142
aV\u5de7\u593a\u5929\u5de5
p1143
aV\u767d\u9a6c\u975e\u9a6c
p1144
aV\u4eba\u5c71\u4eba\u6d77
p1145
aV\u5fc3\u6025\u5982\u711a
p1146
aV\u5fc3\u5982\u4e71\u9ebb
p1147
aV\u4e0a\u7a9c\u4e0b\u8df3
p1148
aV\u4e07\u91cc\u65e0\u4e91
p1149
aV\u79cb\u98ce\u9001\u723d
p1150
aV\u4e0d\u53ef\u8ba1\u6570
p1151
aV\u884c\u5c38\u8d70\u8089
p1152
aV\u624b\u5fd9\u811a\u4e71
p1153
aV\u820c\u6218\u7fa4\u5112
p1154
aV\u771f\u624d\u5b9e\u5b66
p1155
aV\u5b88\u53e3\u5982\u74f6
p1156
aV\u6bdb\u9042\u81ea\u8350
p1157
aV\u6dcb\u6f13\u5c3d\u81f4
p1158
aV\u65d7\u9f13\u76f8\u5f53
p1159
aV\u89c6\u4f60\u5982\u547d
p1160
aV\u5ddd\u6d41\u4e0d\u606f
p1161
aV\u52c7\u5f80\u76f4\u524d
p1162
aV\u65e5\u4e0a\u4e09\u7aff
p1163
aV\u60ca\u5929\u52a8\u5730
p1164
aV\u53d7\u76ca\u532a\u6d45
p1165
aV\u65e0\u5947\u4e0d\u6709
p1166
aV\u65c1\u6572\u4fa7\u51fb
p1167
aV\u6cef\u706d\u4eba\u6027
p1168
aV\u7f6e\u4e4b\u5ea6\u5916
p1169
aV\u548c\u98ce\u7ec6\u96e8
p1170
aV\u7a7a\u7a74\u6765\u98ce
p1171
aV\u9c7c\u76ee\u6df7\u73e0
p1172
aV\u9000\u907f\u4e09\u820d
p1173
aV\u60df\u6211\u72ec\u5c0a
p1174
aV\u6ee1\u56ed\u6625\u8272
p1175
aV\u5b66\u5bcc\u4e94\u8f66
p1176
aV\u60a3\u5f97\u60a3\u5931
p1177
aV\u522b\u5177\u5320\u5fc3
p1178
aV\u7eb5\u6a2a\u636d\u9616
p1179
aV\u4e00\u5b57\u5343\u91d1
p1180
aV\u7f8e\u4e0d\u80dc\u6536
p1181
aV\u9057\u81ed\u4e07\u5e74
p1182
aV\u9ed8\u9ed8\u65e0\u95fb
p1183
aV\u4e00\u89e6\u5373\u53d1
p1184
aV\u8d64\u80c6\u5fe0\u5fc3
p1185
aV\u6740\u9e21\u5106\u7334
p1186
aV\u6840\u9a9c\u4e0d\u9a6f
p1187
aV\u9003\u4e4b\u592d\u592d
p1188
aV\u6e05\u6e05\u695a\u695a
p1189
aV\u91cd\u89c1\u5929\u65e5
p1190
aV\u8c04\u4e0a\u6b3a\u4e0b
p1191
aV\u81ea\u7531\u81ea\u5728
p1192
aV\u6c14\u52bf\u96c4\u4f1f
p1193
aV\u6b7b\u6c14\u6c89\u6c89
p1194
aV\u903c\u4e0a\u6881\u5c71
p1195
aV\u4e0d\u4ee5\u4e3a\u7136
p1196
aV\u4eca\u751f\u4eca\u4e16
p1197
aV\u5b64\u4e91\u91ce\u9e64
p1198
aV\u4e00\u8d2b\u5982\u6d17
p1199
aV\u80c6\u5c0f\u5982\u9f20
p1200
aV\u851a\u7136\u6210\u98ce
p1201
aV\u65ad\u7ae0\u53d6\u4e49
p1202
aV\u65f6\u6765\u8fd0\u8f6c
p1203
aV\u671d\u79e6\u66ae\u695a
p1204
aV\u900d\u9065\u6cd5\u5916
p1205
aV\u9526\u7ee3\u6cb3\u5c71
p1206
aV\u8fc7\u773c\u70df\u4e91
p1207
aV\u5355\u5200\u76f4\u5165
p1208
aV\u4e00\u9f13\u4f5c\u6c14
p1209
aV\u5927\u667a\u82e5\u611a
p1210
aV\u5728\u52ab\u96be\u9003
p1211
aV\u775a\u7726\u5fc5\u62a5
p1212
aV\u611a\u516c\u79fb\u5c71
p1213
aV\u5927\u96ea\u7eb7\u98de
p1214
aV\u5fae\u4e0d\u8db3\u9053
p1215
aV\u6d41\u666f\u95f2\u8349
p1216
aV\u7433\u7405\u6ee1\u76ee
p1217
aV\u6349\u895f\u89c1\u8098
p1218
aV\u98ce\u82b1\u96ea\u6708
p1219
aV\u5954\u817e\u4e0d\u606f
p1220
aV\u5144\u5f1f\u960b\u5899
p1221
aV\u65ed\u65e5\u4e1c\u5347
p1222
aV\u6843\u674e\u6ee1\u5929\u4e0b
p1223
aV\u98de\u9ec4\u817e\u8fbe
p1224
aV\u4e16\u6001\u708e\u51c9
p1225
aV\u81ea\u8a00\u81ea\u8bed
p1226
aV\u5be5\u5be5\u65e0\u51e0
p1227
aV\u90d1\u4eba\u4e70\u5c65
p1228
aV\u6c34\u5929\u4e00\u8272
p1229
aV\u5927\u79b9\u6cbb\u6c34
p1230
aV\u6cbd\u540d\u9493\u8a89
p1231
aV\u6781\u4e50\u4e16\u754c
p1232
aV\u6276\u5f31\u6291\u5f3a
p1233
aV\u65e0\u5fe7\u65e0\u8651
p1234
aV\u627f\u4e0a\u542f\u4e0b
p1235
aV\u4e00\u98de\u51b2\u5929
p1236
aV\u76f8\u4eb2\u76f8\u7231
p1237
aV\u6cb3\u4e1c\u72ee\u543c
p1238
aV\u6367\u8179\u5927\u7b11
p1239
aV\u6a2a\u884c\u9738\u9053
p1240
aV\u6ce2\u5149\u9cde\u9cde
p1241
aV\u9b3c\u54ed\u795e\u568e
p1242
aV\u6625\u79cb\u7b14\u6cd5
p1243
aV\u4eba\u58f0\u9f0e\u6cb8
p1244
aV\u6c14\u5598\u5401\u5401
p1245
aV\u8fde\u9501\u53cd\u5e94
p1246
aV\u5f15\u7ecf\u636e\u5178
p1247
aV\u56f4\u9b4f\u6551\u8d75
p1248
aV\u4e0d\u60d1\u4e4b\u5e74
p1249
aV\u6325\u6d12\u81ea\u5982
p1250
aV\u76f8\u6fe1\u4ee5\u6cab
p1251
aV\u5927\u5feb\u6735\u9890
p1252
aV\u7c89\u58a8\u767b\u573a
p1253
aV\u4e3e\u8896\u4e3a\u4e91
p1254
aV\u6709\u53e3\u65e0\u5fc3
p1255
aV\u4e5d\u5dde\u65b9\u5706
p1256
aV\u949f\u9e23\u9f0e\u98df
p1257
aV\u98ce\u96ea\u4ea4\u52a0
p1258
aV\u4e00\u5e94\u4ff1\u5168
p1259
aV\u559c\u95fb\u4e50\u89c1
p1260
aV\u63d2\u79d1\u6253\u8be8
p1261
aV\u51b0\u6e05\u7389\u6d01
p1262
aV\u968f\u5fc3\u6240\u6b32
p1263
aV\u4eca\u975e\u6614\u6bd4
p1264
aV\u56db\u5b57\u6210\u8bed
p1265
aV\u8fc7\u65f6\u9ec4\u82b1
p1266
aV\u6084\u65e0\u58f0\u606f
p1267
aV\u91d1\u6208\u94c1\u9a6c
p1268
aV\u5176\u8c8c\u4e0d\u626c
p1269
aV\u9e1f\u8bed\u82b1\u9999
p1270
aV\u5c06\u4fe1\u5c06\u7591
p1271
aV\u9f99\u864e\u98ce\u4e91
p1272
aV\u91d1\u7389\u6ee1\u5802
p1273
aV\u559c\u6c14\u6d0b\u6d0b
p1274
aV\u4e09\u957f\u4e24\u77ed
p1275
aV\u5929\u4f5c\u4e4b\u5408
p1276
aV\u9f99\u751f\u4e5d\u5b50
p1277
aV\u679c\u5b9e\u7d2f\u7d2f
p1278
aV\u4eb2\u5bc6\u65e0\u95f4
p1279
aV\u6df1\u5165\u6d45\u51fa
p1280
aV\u6b22\u58f0\u7b11\u8bed
p1281
aV\u5c11\u5e74\u6b8b\u50cf
p1282
aV\u6708\u4e2d\u6298\u6842
p1283
aV\u6539\u90aa\u5f52\u6b63
p1284
aV\u4e00\u9e23\u60ca\u4eba
p1285
aV\u7709\u98de\u8272\u821e
p1286
aV\u8863\u51a0\u695a\u695a
p1287
aV\u6301\u4e4b\u4ee5\u6052
p1288
aV\u4e16\u5916\u6843\u6e90
p1289
aV\u4e73\u71d5\u521d\u98de
p1290
aV\u8feb\u5728\u7709\u776b
p1291
aV\u529f\u6210\u4e0d\u5c45
p1292
aV\u7834\u91dc\u6c89\u821f
p1293
aV\u5ff5\u5ff5\u4e0d\u5fd8
p1294
aV\u5c71\u5c71\u6c34\u6c34
p1295
aV\u56db\u6d77\u4e00\u5bb6
p1296
aV\u5507\u9f7f\u76f8\u4f9d
p1297
aV\u8038\u5165\u4e91\u5929
p1298
aV\u5f02\u66f2\u540c\u5de5
p1299
aV\u7b14\u58a8\u7eb8\u781a
p1300
aV\u542b\u7cca\u5176\u8f9e
p1301
aV\u80e1\u8a00\u4e71\u8bed
p1302
aV\u65e0\u52a8\u4e8e\u8877
p1303
aV\u518d\u63a5\u518d\u5389
p1304
aV\u6797\u6d77\u96ea\u539f
p1305
aV\u795e\u673a\u5999\u7b97
p1306
aV\u87b3\u8782\u6355\u8749
p1307
aV\u74dc\u679c\u852c\u83dc
p1308
aV\u6597\u9152\u5b66\u58eb
p1309
aV\u6d41\u8a00\u871a\u8bed
p1310
aV\u5927\u60ca\u5931\u8272
p1311
aV\u6ef4\u6c34\u4e0d\u6f0f
p1312
aV\u9065\u4e0d\u53ef\u53ca
p1313
aV\u5386\u5386\u5728\u76ee
p1314
aV\u5356\u56fd\u6c42\u8363
p1315
aV\u9a87\u4eba\u542c\u95fb
p1316
aV\u6d77\u9614\u5929\u7a7a
p1317
aV\u6b22\u5929\u559c\u5730
p1318
aV\u6c34\u6d41\u6e4d\u6025
p1319
aV\u5fc3\u6709\u4f59\u60b8
p1320
aV\u4eba\u9762\u6843\u82b1
p1321
aV\u51fa\u4eba\u5934\u5730
p1322
aV\u5de7\u7acb\u540d\u76ee
p1323
aV\u751a\u56a3\u5c18\u4e0a
p1324
aV\u9e21\u9e23\u72d7\u76d7
p1325
aV\u4e09\u7687\u4e94\u5e1d
p1326
aV\u5c81\u5bd2\u4e09\u53cb
p1327
aV\u60f3\u5165\u975e\u975e
p1328
aV\u6c5f\u90ce\u624d\u5c3d
p1329
aV\u5f04\u5047\u6210\u771f
p1330
aV\u65e0\u4ef7\u4e4b\u5b9d
p1331
aV\u5f85\u5b57\u95fa\u4e2d
p1332
aV\u60c5\u4e0d\u81ea\u7981
p1333
aV\u679c\u56ed\u98d8\u9999
p1334
aV\u60ca\u9e3f\u4e00\u77a5
p1335
aV\u4e0d\u53ef\u540d\u72b6
p1336
aV\u76f8\u5f97\u76ca\u5f70
p1337
aV\u79ef\u5c11\u6210\u591a
p1338
aV\u81ea\u8f7b\u81ea\u8d31
p1339
aV\u6218\u6218\u5162\u5162
p1340
aV\u66fe\u51e0\u4f55\u65f6
p1341
aV\u4e00\u76ee\u4e86\u7136
p1342
aV\u4ee5\u5c11\u80dc\u591a
p1343
aV\u56fd\u8272\u5929\u9999
p1344
aV\u5982\u75f4\u5982\u9189
p1345
aV\u9053\u4e0d\u62fe\u9057
p1346
aV\u671d\u5915\u76f8\u5904
p1347
aV\u53eb\u82e5\u8fde\u5929
p1348
aV\u516d\u795e\u65e0\u4e3b
p1349
aV\u7f8e\u8f6e\u7f8e\u5942
p1350
aV\u9ad8\u8c08\u9614\u8bba
p1351
aV\u9752\u7ea2\u7682\u767d
p1352
aV\u5065\u6b65\u5982\u98de
p1353
aV\u5b89\u6b65\u5f53\u8f66
p1354
aV\u6843\u4e4b\u592d\u592d
p1355
aV\u603b\u800c\u8a00\u4e4b
p1356
aV\u65e0\u5730\u81ea\u5bb9
p1357
aV\u89c1\u5fae\u77e5\u8457
p1358
aV\u5929\u7f57\u5730\u7f51
p1359
aV\u5e7c\u7a1a\u4e0d\u582a
p1360
aV\u5047\u4ec1\u5047\u4e49
p1361
aV\u7231\u5c4b\u53ca\u4e4c
p1362
aV\u8d77\u6b7b\u56de\u751f
p1363
aV\u5f62\u52bf\u903c\u4eba
p1364
aV\u6599\u4e8b\u5982\u795e
p1365
aV\u8d64\u5b50\u4e4b\u5fc3
p1366
aV\u76f8\u89c1\u6068\u665a
p1367
aV\u63d2\u7fc5\u96be\u9003
p1368
aV\u6d6e\u751f\u82e5\u68a6
p1369
aV\u65f6\u5149\u834f\u82d2
p1370
aV\u7389\u5b87\u743c\u697c
p1371
aV\u864e\u53e3\u8131\u79bb
p1372
aV\u5c0f\u65f6\u4e86\u4e86
p1373
aV\u51a0\u5195\u5802\u7687
p1374
aV\u5c42\u51fa\u4e0d\u7a77
p1375
aV\u6b22\u805a\u4e00\u5802
p1376
aV\u81ea\u6b3a\u6b3a\u4eba
p1377
aV\u4e00\u7eb8\u8352\u5e74
p1378
aV\u661f\u706b\u71ce\u539f
p1379
aV\u674f\u96e8\u68a8\u4e91
p1380
aV\u91d1\u8749\u8131\u58f3
p1381
aV\u82f1\u96c4\u8c6a\u6770
p1382
aV\u82e6\u5fc3\u5b64\u8be3
p1383
aV\u6587\u4e0d\u52a0\u70b9
p1384
aV\u6218\u65e0\u4e0d\u80dc
p1385
aV\u4e94\u82b1\u516b\u95e8
p1386
aV\u8feb\u4e0d\u53ca\u5f85
p1387
aV\u9752\u5c71\u7eff\u6c34
p1388
aV\u4e00\u4e8b\u65e0\u6210
p1389
aV\u8c22\u5929\u8c22\u5730
p1390
aV\u76d8\u53e4\u5f00\u5929\u5730
p1391
aV\u65ad\u6865\u6b8b\u96ea
p1392
aV\u5403\u559d\u73a9\u4e50
p1393
aV\u82e5\u5373\u82e5\u79bb
p1394
aV\u820d\u8fd1\u6c42\u8fdc
p1395
aV\u539a\u989c\u65e0\u803b
p1396
aV\u7fe9\u7136\u5f52\u6765
p1397
aV\u662d\u7136\u82e5\u63ed
p1398
aV\u7eb5\u6a2a\u5929\u4e0b
p1399
aV\u65e0\u7a77\u65e0\u5c3d
p1400
aV\u56ca\u8424\u6620\u96ea
p1401
aV\u6c6a\u6d0b\u5927\u6d77
p1402
aV\u4e0d\u4e00\u800c\u8db3
p1403
aV\u5f97\u5fc3\u5e94\u624b
p1404
aV\u5f92\u589e\u4f24\u60b2
p1405
aV\u6ee1\u57ce\u98ce\u96e8
p1406
aV\u91d1\u679d\u7389\u53f6
p1407
aV\u4e95\u5e95\u4e4b\u86d9
p1408
aV\u5954\u817e\u7ffb\u5377
p1409
aV\u8001\u6001\u9f99\u949f
p1410
aV\u9053\u8c8c\u5cb8\u7136
p1411
aV\u5999\u624b\u7a7a\u7a7a
p1412
aV\u6478\u91d1\u6821\u5c09
p1413
aV\u820d\u5df1\u4e3a\u4eba
p1414
aV\u5b66\u6709\u4e13\u957f
p1415
aV\u5947\u8d27\u53ef\u5c45
p1416
aV\u6837\u6837\u5927\u89c2
p1417
aV\u60ca\u614c\u5931\u63aa
p1418
aV\u6d77\u67af\u77f3\u70c2
p1419
aV\u4e03\u4e0a\u516b\u4e0b
p1420
aV\u72d7\u5c3e\u7eed\u8c82
p1421
aV\u6691\u6c14\u84b8\u4eba
p1422
aV\u73e0\u5149\u5b9d\u6c14
p1423
aV\u6309\u56fe\u7d22\u9aa5
p1424
aV\u81ea\u9ad8\u81ea\u5927
p1425
aV\u4e0d\u77e5\u4e0d\u89c9
p1426
aV\u767e\u9e1f\u671d\u51e4
p1427
aV\u76f4\u8a00\u4e0d\u8bb3
p1428
aV\u6709\u5934\u65e0\u5c3e
p1429
aV\u7eff\u6811\u6210\u836b
p1430
aV\u51b7\u773c\u65c1\u89c2
p1431
aV\u6b32\u64d2\u6545\u7eb5
p1432
aV\u534a\u9014\u800c\u5e9f
p1433
aV\u75f4\u4eba\u8bf4\u68a6
p1434
aV\u9f99\u817e\u864e\u8dc3
p1435
aV\u534a\u8def\u5c71\u5bb6
p1436
aV\u81ea\u6211\u9676\u9189
p1437
aV\u5e94\u6709\u5c3d\u6709
p1438
aV\u529d\u767e\u8bbd\u4e00
p1439
aV\u9732\u6c34\u592b\u59bb
p1440
aV\u9010\u9e7f\u4e2d\u539f
p1441
aV\u53d6\u957f\u8865\u77ed
p1442
aV\u6c90\u7334\u800c\u51a0
p1443
aV\u81ea\u4f5c\u81ea\u53d7
p1444
aV\u865a\u60c5\u5047\u610f
p1445
aV\u60ac\u5d16\u52d2\u9a6c
p1446
aV\u58f0\u8272\u72ac\u9a6c
p1447
aV\u843d\u82b1\u6d41\u6c34
p1448
aV\u9526\u4e0a\u6dfb\u82b1
p1449
aV\u6587\u8d28\u5f6c\u5f6c
p1450
aV\u5357\u67ef\u4e00\u68a6
p1451
aV\u5782\u5e18\u542c\u653f
p1452
aV\u6d69\u6d69\u957f\u7a7a
p1453
aV\u9065\u9065\u65e0\u671f
p1454
aV\u5f03\u6697\u6295\u660e
p1455
aV\u541b\u5b50\u597d\u9011
p1456
aV\u534a\u4fe1\u534a\u7591
p1457
aV\u6c81\u4eba\u5fc3\u813e
p1458
aV\u6587\u8fc7\u9970\u975e
p1459
aV\u4e07\u8c61\u66f4\u65b0
p1460
aV\u4e07\u91cc\u957f\u57ce
p1461
aV\u67f3\u6697\u82b1\u660e
p1462
aV\u6447\u6447\u6b32\u5760
p1463
aV\u5b88\u682a\u5f85\u5154
p1464
aV\u4f17\u661f\u6367\u6708
p1465
aV\u738b\u4faf\u5c06\u76f8
p1466
aV\u594b\u4e0d\u987e\u8eab
p1467
aV\u65e0\u77e5\u65e0\u754f
p1468
aV\u6db8\u8f99\u4e4b\u9c8b
p1469
aV\u83ab\u8877\u4e00\u662f
p1470
aV\u660e\u65e5\u9ec4\u82b1
p1471
aV\u65e0\u6240\u987e\u5fcc
p1472
aV\u6447\u5934\u6446\u5c3e
p1473
aV\u7a33\u5982\u6cf0\u5c71
p1474
aV\u89c2\u8005\u5982\u4e91
p1475
aV\u73ed\u95e8\u5f04\u65a7
p1476
aV\u80fd\u5c48\u80fd\u4f38
p1477
aV\u559c\u7b11\u989c\u5f00
p1478
aV\u9b51\u9b45\u9b4d\u9b49
p1479
aV\u81ea\u6028\u81ea\u827e
p1480
aV\u5e9f\u5bdd\u5fd8\u98df
p1481
aV\u5929\u4e0b\u65e0\u654c
p1482
aV\u4e94\u5f69\u7f24\u7eb7
p1483
aV\u5367\u864e\u85cf\u9f99
p1484
aV\u767d\u4e91\u82cd\u72d7
p1485
aV\u7ed5\u6881\u4e09\u65e5
p1486
aV\u575a\u5f3a\u4e0d\u5c48
p1487
aV\u72d0\u5047\u864e\u5a01
p1488
aV\u4e89\u5206\u593a\u79d2
p1489
aV\u53f1\u54a4\u98ce\u4e91
p1490
aV\u96e8\u540e\u6625\u7b0b
p1491
aV\u751f\u6c14\u52c3\u52c3
p1492
aV\u70c8\u65e5\u5f53\u5934
p1493
aV\u5fc3\u6148\u9762\u5584
p1494
aV\u4e07\u9a6c\u9f50\u5591
p1495
aV\u4e39\u51e4\u671d\u9633
p1496
aV\u4e00\u8def\u987a\u98ce
p1497
aV\u503e\u57ce\u4f73\u4eba
p1498
aV\u4f17\u5fd7\u6210\u57ce
p1499
aV\u5316\u9669\u4e3a\u5937
p1500
aV\u8bf4\u4e00\u4e0d\u4e8c
p1501
aV\u98ce\u4e91\u53d8\u5e7b
p1502
aV\u98ce\u96e8\u65e0\u963b
p1503
aV\u8c28\u8a00\u614e\u884c
p1504
aV\u6101\u7709\u82e6\u8138
p1505
aV\u964d\u9f99\u4f0f\u864e
p1506
aV\u96f7\u5389\u98ce\u884c
p1507
aV\u5162\u5162\u4e1a\u4e1a
p1508
aV\u65e5\u65e5\u591c\u591c
p1509
aV\u767e\u5bb6\u4e89\u9e23
p1510
aV\u624b\u821e\u8db3\u8e48
p1511
aV\u541e\u4e91\u5410\u96fe
p1512
aV\u4e00\u78a7\u5343\u91cc
p1513
aV\u7b28\u9e1f\u5148\u98de
p1514
aV\u5bfb\u6b7b\u89c5\u6d3b
p1515
aV\u6d0b\u6d0b\u5f97\u610f
p1516
aV\u5927\u96e8\u503e\u76c6
p1517
aV\u77eb\u6789\u8fc7\u6b63
p1518
aV\u56de\u5fc3\u8f6c\u610f
p1519
aV\u4e07\u7d2b\u5343\u7ea2
p1520
aV\u77bb\u524d\u987e\u540e
p1521
aV\u795e\u91c7\u5955\u5955
p1522
aV\u6d77\u5e02\u8703\u697c
p1523
aV\u59d7\u59d7\u6765\u8fdf
p1524
aV\u6c34\u6f2b\u91d1\u5c71
p1525
aV\u70df\u6d88\u4e91\u6563
p1526
aV\u95e8\u53ef\u7f57\u96c0
p1527
aV\u6625\u98ce\u5316\u96e8
p1528
aV\u659c\u98ce\u7ec6\u96e8
p1529
aV\u6811\u5927\u6839\u6df1
p1530
aV\u98ce\u5439\u8349\u52a8
p1531
aV\u82b1\u679d\u62db\u5c55
p1532
aV\u5367\u51b0\u6c42\u9ca4
p1533
aV\u7ba1\u4e2d\u7aa5\u8c79
p1534
aV\u56fd\u58eb\u65e0\u53cc
p1535
aV\u5b57\u5b57\u73e0\u7391
p1536
aV\u82b1\u56e2\u9526\u7c07
p1537
aV\u6708\u51fa\u4e1c\u5c71
p1538
aV\u6740\u4e00\u5106\u767e
p1539
aV\u5d07\u5c71\u5cfb\u5cad
p1540
aV\u65e0\u53ef\u539a\u975e
p1541
aV\u6311\u80a5\u62e3\u7626
p1542
aV\u52e4\u5b66\u597d\u95ee
p1543
aV\u9f99\u98de\u51e4\u821e
p1544
aV\u8d76\u5c3d\u6740\u7edd
p1545
aV\u7a0d\u7eb5\u5373\u901d
p1546
aV\u78a7\u7a7a\u5982\u6d17
p1547
aV\u4e09\u4ece\u56db\u5fb7
p1548
aV\u4f9d\u7136\u5982\u6545
p1549
aV\u5dfe\u5e3c\u82f1\u96c4
p1550
aV\u4f60\u6700\u73cd\u8d35
p1551
aV\u53e6\u773c\u76f8\u770b
p1552
aV\u6ee1\u5c71\u904d\u91ce
p1553
aV\u804a\u80dc\u4e8e\u65e0
p1554
aV\u4e07\u70b9\u7e41\u661f
p1555
aV\u91d1\u7ae5\u7389\u5973
p1556
aV\u4e07\u9a6c\u5954\u817e
p1557
aV\u7edd\u5904\u9022\u751f
p1558
aV\u751f\u8d22\u6709\u9053
p1559
aV\u4ea2\u9f99\u6709\u6094
p1560
aV\u6ee1\u5929\u661f\u6597
p1561
aV\u80e1\u601d\u4e71\u60f3
p1562
aV\u58ee\u5fd7\u51cc\u4e91
p1563
aV\u7537\u5927\u5f53\u5a5a
p1564
aV\u6a2a\u626b\u5343\u519b
p1565
aV\u8349\u6728\u7686\u5175
p1566
aV\u76ee\u7a7a\u4e00\u5207
p1567
aV\u5929\u957f\u5730\u4e45
p1568
aV\u97ec\u5149\u517b\u6666
p1569
aV\u5b66\u65e0\u6b62\u5883
p1570
aV\u77e2\u5fd7\u4e0d\u6e1d
p1571
aV\u5fd8\u4e4e\u6240\u4ee5
p1572
aV\u98ce\u96e8\u98d8\u6447
p1573
aV\u9762\u9ec4\u808c\u7626
p1574
aV\u58f0\u4e1c\u51fb\u897f
p1575
aV\u53cd\u8d25\u4e3a\u80dc
p1576
aV\u5929\u4e4b\u9a84\u5b50
p1577
aV\u6325\u91d1\u5982\u571f
p1578
aV\u5c0f\u9898\u5927\u505a
p1579
aV\u6c86\u7023\u4e00\u6c14
p1580
aV\u53ea\u4e89\u671d\u5915
p1581
aV\u65e5\u9ad8\u4e09\u5c3a
p1582
aV\u6625\u82b1\u79cb\u6708
p1583
aV\u541e\u541e\u5410\u5410
p1584
aV\u6f2b\u4e0d\u7ecf\u5fc3
p1585
aV\u4e0d\u6bc1\u4e0d\u6094
p1586
aV\u4e0d\u8a00\u800c\u55bb
p1587
aV\u5929\u4e0b\u4e3a\u516c
p1588
aV\u6b32\u76d6\u5f25\u5f70
p1589
aV\u51fa\u751f\u5165\u6b7b
p1590
aV\u4efb\u91cd\u9053\u8fdc
p1591
aV\u6307\u9e7f\u4e3a\u9a6c
p1592
aV\u7ef0\u7ef0\u6709\u4f59
p1593
aV\u6295\u673a\u53d6\u5de7
p1594
aV\u53e3\u662f\u5fc3\u975e
p1595
aV\u82b1\u5bb9\u6708\u8c8c
p1596
aV\u751f\u9f99\u6d3b\u864e
p1597
aV\u5410\u6545\u7eb3\u65b0
p1598
aV\u4e5d\u725b\u4e00\u6bdb
p1599
aV\u9ad8\u5c71\u4ef0\u6b62
p1600
aV\u79c0\u8272\u53ef\u9910
p1601
aV\u8eab\u4e0d\u7531\u5df1
p1602
aV\u5f62\u5f62\u8272\u8272
p1603
aV\u5f64\u4e91\u5bc6\u5e03
p1604
aV\u6ca1\u7cbe\u6253\u91c7
p1605
aV\u676f\u5f13\u86c7\u5f71
p1606
aV\u51b0\u5929\u96ea\u5730
p1607
aV\u767b\u5802\u5165\u5ba4
p1608
aV\u767d\u624b\u8d77\u5bb6
p1609
aV\u9a6c\u5230\u6210\u529f
p1610
aV\u514b\u5df1\u5949\u516c
p1611
aV\u503e\u56fd\u503e\u57ce
p1612
aV\u51e4\u51f0\u4e8e\u98de
p1613
aV\u4e91\u6de1\u98ce\u8f7b
p1614
aV\u6d6a\u8ff9\u5929\u6daf
p1615
aV\u8bbe\u65bd\u9f50\u5168
p1616
aV\u5929\u9a6c\u884c\u7a7a
p1617
aV\u6ee1\u8179\u7ecf\u7eb6
p1618
aV\u95fb\u8fc7\u5219\u559c
p1619
aV\u7b5a\u8def\u84dd\u7f15
p1620
aV\u725b\u5934\u9a6c\u9762
p1621
aV\u9cde\u6b21\u6809\u6bd4
p1622
aV\u76ee\u4e2d\u65e0\u4eba
p1623
aV\u95f2\u8a00\u788e\u8bed
p1624
aV\u671b\u6d0b\u5174\u53f9
p1625
aV\u5c82\u6709\u6b64\u7406
p1626
aV\u7fe9\u7fe9\u516c\u5b50
p1627
aV\u5f02\u9999\u6251\u9f3b
p1628
aV\u4e50\u4e0d\u601d\u8700
p1629
aV\u96be\u80fd\u53ef\u8d35
p1630
aV\u4ee5\u5fb7\u62a5\u6028
p1631
aV\u671b\u7a7f\u79cb\u6c34
p1632
aV\u832b\u7136\u82e5\u5931
p1633
aV\u5927\u540d\u9f0e\u9f0e
p1634
aV\u70df\u6ce2\u6d69\u6e3a
p1635
aV\u6cfe\u6e2d\u5206\u660e
p1636
aV\u753b\u5730\u4e3a\u7262
p1637
aV\u4e03\u60c5\u516d\u6b32
p1638
aV\u8695\u98df\u9cb8\u541e
p1639
aV\u94c1\u6811\u5f00\u82b1
p1640
aV\u5c45\u5b89\u601d\u5371
p1641
aV\u6234\u6708\u62ab\u661f
p1642
aV\u72d7\u6025\u8df3\u5899
p1643
aV\u67aa\u6797\u5f39\u96e8
p1644
aV\u6d1b\u9633\u7eb8\u8d35
p1645
aV\u5fc3\u733f\u610f\u9a6c
p1646
aV\u6012\u53d1\u51b2\u51a0
p1647
aV\u957f\u5401\u77ed\u53f9
p1648
aV\u5bf9\u7b54\u5982\u6d41
p1649
aV\u4f17\u77e2\u4e4b\u7684
p1650
aV\u89c6\u6b7b\u5982\u5f52
p1651
aV\u4e0d\u7518\u793a\u5f31
p1652
aV\u4e00\u9a6c\u5f53\u5148
p1653
aV\u96e8\u8fc7\u5929\u6674
p1654
aV\u8f6c\u5371\u4e3a\u5b89
p1655
aV\u6765\u65e5\u65b9\u957f
p1656
aV\u5f97\u9647\u671b\u8700
p1657
aV\u63a8\u5fc3\u7f6e\u8179
p1658
aV\u9ad8\u77bb\u8fdc\u77a9
p1659
aV\u6709\u540d\u65e0\u5b9e
p1660
aV\u4e09\u987e\u8305\u5e90
p1661
aV\u5c71\u660e\u6c34\u79c0
p1662
aV\u65e0\u53ef\u4f55\u5982
p1663
aV\u4e0d\u803b\u4e0b\u95ee
p1664
aV\u60ca\u6d9b\u62cd\u5cb8
p1665
aV\u4e0d\u77e5\u6240\u63aa
p1666
aV\u4e39\u971e\u4f3c\u9526
p1667
aV\u91d1\u98ce\u7389\u9732
p1668
aV\u9e26\u96c0\u65e0\u58f0
p1669
aV\u73cd\u79bd\u5f02\u517d
p1670
aV\u95ed\u95e8\u9020\u8f66
p1671
aV\u4ead\u4ead\u7389\u7acb
p1672
aV\u873b\u8713\u70b9\u6c34
p1673
aV\u9ec4\u96c0\u5728\u540e
p1674
aV\u6d41\u8fde\u5fd8\u8fd4
p1675
aV\u65f6\u8fc7\u5883\u8fc1
p1676
aV\u6ce2\u6d9b\u6c79\u6d8c
p1677
aV\u5bf9\u725b\u5f39\u7434
p1678
aV\u629b\u7816\u5f15\u7389
p1679
aV\u540d\u526f\u5176\u5b9e
p1680
aV\u80e1\u670d\u9a91\u5c04
p1681
aV\u8c41\u8fbe\u5927\u5ea6
p1682
aV\u6597\u8f6c\u661f\u79fb
p1683
aV\u517b\u751f\u4e4b\u9053
p1684
aV\u653e\u864e\u5f52\u5c71
p1685
aV\u5929\u65b9\u591c\u8c2d
p1686
aV\u81ea\u5706\u5176\u8bf4
p1687
aV\u4e00\u8d25\u5982\u6c34
p1688
aV\u65e0\u4e3a\u800c\u6cbb
p1689
aV\u5a49\u8f6c\u60a6\u8033
p1690
aV\u4e95\u4e95\u6709\u6761
p1691
aV\u4f9b\u4e0d\u5e94\u6c42
p1692
aV\u5984\u81ea\u5c0a\u5927
p1693
aV\u9e64\u5533\u534e\u4ead
p1694
aV\u5bf8\u8349\u4e0d\u751f
p1695
aV\u9a91\u864e\u96be\u4e0b
p1696
aV\u8c6a\u8a00\u58ee\u8bed
p1697
aV\u98a0\u5012\u4e7e\u5764
p1698
aV\u7b11\u9010\u989c\u5f00
p1699
aV\u7f6a\u9b41\u7978\u9996
p1700
aV\u5927\u540c\u5c0f\u5f02
p1701
aV\u5357\u8154\u5317\u8c03
p1702
aV\u6019\u6076\u4e0d\u609b
p1703
aV\u8c61\u5f81\u548c\u5e73
p1704
aV\u5dee\u5f3a\u4eba\u610f
p1705
aV\u62d4\u82d7\u52a9\u957f
p1706
aV\u798f\u661f\u9ad8\u7167
p1707
aV\u6b65\u6b65\u4e3a\u8425
p1708
aV\u5175\u4e34\u57ce\u4e0b
p1709
aV\u82b1\u597d\u6708\u5706
p1710
aV\u5f62\u5f71\u4e0d\u79bb
p1711
aV\u4e00\u4e1d\u4e00\u6beb
p1712
aV\u540c\u7518\u5171\u82e6
p1713
aV\u51f6\u591a\u5409\u5c11
p1714
aV\u957f\u751f\u4e0d\u6b7b
p1715
aV\u5e9e\u7136\u5927\u7269
p1716
aV\u4e09\u5c71\u4e94\u5cb3
p1717
aV\u4e00\u7b14\u62b9\u6740
p1718
aV\u9e23\u9523\u5f00\u9053
p1719
aV\u90c1\u90c1\u8471\u8471
p1720
aV\u4e09\u6559\u4e5d\u6d41
p1721
aV\u5fc3\u5982\u5200\u5272
p1722
aV\u517b\u864e\u9057\u60a3
p1723
aV\u683c\u683c\u4e0d\u5165
p1724
aV\u76d1\u5b88\u81ea\u76d7
p1725
aV\u5ea7\u65e0\u865a\u5e2d
p1726
aV\u4e1c\u5c71\u518d\u8d77
p1727
aV\u767d\u9a79\u8fc7\u9699
p1728
aV\u65e0\u4e2d\u751f\u6709
p1729
aV\u5927\u8179\u4fbf\u4fbf
p1730
aV\u767e\u65e0\u7981\u5fcc
p1731
aV\u8349\u8239\u501f\u7bad
p1732
aV\u5fc3\u5fc3\u76f8\u5370
p1733
aV\u542b\u8f9b\u8339\u82e6
p1734
aV\u9664\u65e7\u66f4\u65b0
p1735
aV\u957f\u5e74\u7d2f\u6708
p1736
aV\u4e94\u82b1\u5927\u7ed1
p1737
aV\u907f\u5b9e\u5c31\u865a
p1738
aV\u6295\u9f20\u5fcc\u5668
p1739
aV\u4fc3\u819d\u8c08\u5fc3
p1740
aV\u8282\u54c0\u987a\u53d8
p1741
aV\u96be\u4ee5\u542f\u9f7f
p1742
aV\u4e2d\u5eb8\u4e4b\u9053
p1743
aV\u8d24\u59bb\u826f\u6bcd
p1744
aV\u9aa8\u7626\u5982\u67f4
p1745
aV\u674e\u4ee3\u6843\u50f5
p1746
aV\u73e0\u8054\u74a7\u5408
p1747
aV\u54ed\u7b11\u4e0d\u5f97
p1748
aV\u8bc4\u5934\u8bba\u8db3
p1749
aV\u59f9\u7d2b\u5ae3\u7ea2
p1750
aV\u539f\u6765\u5982\u6b64
p1751
aV\u7a7f\u9488\u5f15\u7ebf
p1752
aV\u5750\u4e95\u89c2\u5929
p1753
aV\u9738\u738b\u522b\u59ec
p1754
aV\u4e0d\u843d\u7aa0\u81fc
p1755
aV\u9ad8\u697c\u5927\u53a6
p1756
aV\u524d\u5028\u540e\u606d
p1757
aV\u97ad\u957f\u83ab\u53ca
p1758
aV\u51b7\u82e5\u51b0\u971c
p1759
aV\u4e49\u65e0\u53cd\u987e
p1760
aV\u53d1\u6124\u56fe\u5f3a
p1761
aV\u7c89\u5986\u7389\u780c
p1762
aV\u4e0d\u4e4f\u5176\u4eba
p1763
aV\u539a\u6b64\u8584\u5f7c
p1764
aV\u5927\u8a00\u4e0d\u60ed
p1765
aV\u98d8\u98d8\u6b32\u4ed9
p1766
aV\u4e91\u96fe\u8ff7\u8499
p1767
aV\u864e\u53e3\u62d4\u7259
p1768
aV\u534a\u58c1\u6c5f\u5c71
p1769
aV\u529b\u5927\u5982\u725b
p1770
aV\u5168\u5fc3\u5168\u610f
p1771
aV\u5b81\u7f3a\u6bcb\u6ee5
p1772
aV\u819b\u76ee\u7ed3\u820c
p1773
aV\u9b42\u98de\u9b44\u6563
p1774
aV\u79cb\u9ad8\u6c14\u723d
p1775
aV\u4e00\u8e74\u800c\u5c31
p1776
aV\u52ab\u540e\u4f59\u751f
p1777
aV\u7518\u4e4b\u5982\u9974
p1778
aV\u5982\u83b7\u81f3\u5b9d
p1779
aV\u706b\u6811\u94f6\u82b1
p1780
aV\u6ce2\u5149\u7cbc\u7cbc
p1781
aV\u5f97\u610f\u6d0b\u6d0b
p1782
aV\u98a0\u5012\u662f\u975e
p1783
aV\u7c2a\u7f28\u4e16\u65cf
p1784
aV\u6b8b\u5175\u8d25\u5c06
p1785
aV\u9876\u5929\u7acb\u5730
p1786
aV\u4e00\u8bfa\u5343\u91d1
p1787
aV\u56fe\u7a77\u5315\u89c1
p1788
aV\u60fa\u60fa\u76f8\u60dc
p1789
aV\u4e91\u4e2d\u767d\u9e64
p1790
aV\u4e00\u8f6e\u7ea2\u65e5
p1791
aV\u7a77\u51f6\u6781\u6076
p1792
aV\u660e\u4e89\u6697\u6597
p1793
aV\u4e1c\u5f20\u897f\u671b
p1794
aV\u5982\u72fc\u4f3c\u864e
p1795
aV\u6619\u82b1\u4e00\u73b0
p1796
aV\u6e05\u9999\u9c9c\u5ae9
p1797
aV\u98de\u9f99\u5728\u5929
p1798
aV\u4e3e\u4e0d\u80dc\u4e3e
p1799
aV\u9996\u5c48\u4e00\u6307
p1800
aV\u4e07\u7c41\u4ff1\u5bc2
p1801
aV\u7ea2\u6781\u4e00\u65f6
p1802
aV\u5927\u5ead\u5e7f\u4f17
p1803
aV\u548c\u853c\u53ef\u4eb2
p1804
aV\u5fae\u4e4e\u5176\u5fae
p1805
aV\u4e00\u53f6\u969c\u76ee
p1806
aV\u6839\u6df1\u8482\u56fa
p1807
aV\u5351\u8eac\u5c48\u819d
p1808
aV\u6597\u5fd7\u6602\u626c
p1809
aV\u751c\u8a00\u871c\u8bed
p1810
aV\u65e0\u61c8\u53ef\u51fb
p1811
aV\u4e00\u9a6c\u5e73\u5ddd
p1812
aV\u5973\u5a32\u8865\u5929
p1813
aV\u817e\u4e91\u9a7e\u96fe
p1814
aV\u9f99\u4e89\u864e\u6597
p1815
aV\u72d7\u5c41\u4e0d\u901a
p1816
aV\u86db\u4e1d\u9a6c\u8ff9
p1817
aV\u4e0d\u4ea6\u4e50\u4e4e
p1818
aV\u6d2a\u6c34\u731b\u517d
p1819
aV\u4e49\u6124\u586b\u81ba
p1820
aV\u6ca6\u9677\u7684\u75db
p1821
aV\u540d\u80dc\u53e4\u8ff9
p1822
aV\u4e00\u6478\u4e00\u6837
p1823
aV\u76ee\u4e0d\u6687\u63a5
p1824
aV\u60c5\u6df1\u4f3c\u6d77
p1825
aV\u524d\u6240\u672a\u95fb
p1826
aV\u4ea6\u6b65\u4ea6\u8d8b
p1827
aV\u9633\u6625\u767d\u96ea
p1828
aV\u5fc3\u72e0\u624b\u8fa3
p1829
aV\u8c03\u5175\u9063\u5c06
p1830
aV\u672b\u4ee3\u604b\u4eba
p1831
aV\u53f8\u7a7a\u89c1\u60ef
p1832
aV\u96cd\u5bb9\u534e\u8d35
p1833
aV\u5927\u6c5f\u4e1c\u53bb
p1834
aV\u6c34\u6ef4\u77f3\u7a7f
p1835
aV\u9ad8\u670b\u6ee1\u5ea7
p1836
aV\u8840\u96e8\u8165\u98ce
p1837
aV\u9999\u8349\u7f8e\u4eba
p1838
aV\u9ad8\u5c4b\u5efa\u74f4
p1839
aV\u5343\u65b9\u767e\u8ba1
p1840
aV\u671d\u4e09\u66ae\u56db
p1841
aV\u6b23\u6b23\u5411\u8363
p1842
aV\u66b4\u6b84\u5929\u7269
p1843
aV\u5b66\u800c\u4e0d\u538c
p1844
aV\u7edc\u7ece\u4e0d\u7edd
p1845
aV\u5389\u5175\u79e3\u9a6c
p1846
aV\u76f8\u5f62\u89c1\u7ecc
p1847
aV\u98ce\u9a70\u7535\u63a3
p1848
aV\u5bcc\u4e3d\u5802\u7687
p1849
aV\u89c4\u884c\u77e9\u6b65
p1850
aV\u76ee\u65e0\u5168\u725b
p1851
aV\u840d\u6c34\u76f8\u9022
p1852
aV\u773c\u9ad8\u624b\u4f4e
p1853
aV\u4e30\u5bcc\u591a\u5f69
p1854
aV\u614c\u614c\u5f20\u5f20
p1855
aV\u97e6\u7f16\u4e09\u7edd
p1856
aV\u627f\u524d\u542f\u540e
p1857
aV\u7591\u795e\u7591\u9b3c
p1858
aV\u6325\u6c57\u5982\u96e8
p1859
aV\u60e9\u524d\u6bd6\u540e
p1860
aV\u522b\u6765\u65e0\u6059
p1861
aV\u540d\u626c\u56db\u6d77
p1862
aV\u91cc\u5e94\u5916\u5408
p1863
aV\u72c2\u98ce\u66b4\u96e8
p1864
aV\u5a13\u5a13\u52a8\u542c
p1865
aV\u4e00\u4e3e\u6210\u540d
p1866
aV\u62d0\u5f2f\u62b9\u89d2
p1867
aV\u559c\u6012\u65e0\u5e38
p1868
aV\u987a\u624b\u7275\u7f8a
p1869
aV\u9ad8\u8038\u5165\u4e91
p1870
aV\u4e00\u6b65\u767b\u5929
p1871
aV\u98ce\u6d41\u97f5\u4e8b
p1872
aV\u4e5d\u5173\u864e\u8c79
p1873
aV\u6709\u6043\u65e0\u6050
p1874
aV\u672c\u672b\u5012\u7f6e
p1875
aV\u5fe0\u5fc3\u803f\u803f
p1876
aV\u90af\u90f8\u5b66\u6b65
p1877
aV\u65e0\u8fb9\u65e0\u9645
p1878
aV\u75c5\u5165\u818f\u8093
p1879
aV\u98ce\u58f0\u9e64\u5533
p1880
aV\u4e0d\u4e09\u4e0d\u56db
p1881
aV\u72ec\u5360\u9ccc\u5934
p1882
aV\u4e09\u4eba\u6210\u864e
p1883
aV\u5fd7\u540c\u9053\u5408
p1884
aV\u82b1\u82b1\u4e16\u754c
p1885
aV\u7f8e\u5999\u7edd\u4f26
p1886
aV\u8fd8\u6211\u6cb3\u5c71
p1887
aV\u524d\u4ec6\u540e\u7ee7
p1888
aV\u8a93\u6b7b\u4e0d\u4e8c
p1889
aV\u6ec2\u6cb1\u5927\u96e8
p1890
aV\u4e86\u5982\u6307\u638c
p1891
aV\u9e64\u53d1\u7ae5\u989c
p1892
aV\u987e\u6b64\u5931\u5f7c
p1893
aV\u5929\u5e9c\u4e4b\u56fd
p1894
aV\u77f3\u7834\u5929\u60ca
p1895
aV\u529f\u5fb7\u5706\u6ee1
p1896
aV\u6d6e\u5149\u63a0\u5f71
p1897
aV\u70c8\u65e5\u708e\u708e
p1898
aV\u96f7\u9706\u4e07\u94a7
p1899
aV\u8ff7\u9014\u77e5\u8fd4
p1900
aV\u84ec\u5934\u57a2\u9762
p1901
aV\u5de6\u53f3\u9022\u6e90
p1902
aV\u7cbe\u5fe0\u62a5\u56fd
p1903
aV\u89c1\u5229\u5fd8\u4e49
p1904
aV\u4f5c\u8327\u81ea\u7f1a
p1905
aV\u4e00\u65e5\u5343\u91cc
p1906
aV\u5386\u5386\u53ef\u6570
p1907
aV\u4e00\u5c18\u4e0d\u67d3
p1908
aV\u597d\u597d\u5148\u751f
p1909
aV\u8033\u76ee\u4e00\u65b0
p1910
aV\u9532\u800c\u4e0d\u820d
p1911
aV\u535a\u89c8\u7fa4\u4e66
p1912
aV\u653e\u8361\u4e0d\u7f81
p1913
aV\u4eba\u6765\u4eba\u5f80
p1914
aV\u6709\u773c\u65e0\u73e0
p1915
aV\u52bf\u5982\u7834\u7af9
p1916
aV\u884c\u4e91\u6d41\u6c34
p1917
aV\u5fc3\u7167\u4e0d\u5ba3
p1918
aV\u5077\u5929\u6362\u65e5
p1919
aV\u73a9\u4e16\u4e0d\u606d
p1920
aV\u65e5\u4e45\u5929\u957f
p1921
aV\u624b\u5230\u64d2\u6765
p1922
aV\u95e8\u5ead\u82e5\u5e02
p1923
aV\u6625\u610f\u76ce\u7136
p1924
aV\u4e0d\u53ef\u4e00\u4e16
p1925
aV\u559c\u4e0a\u7709\u68a2
p1926
aV\u6590\u7136\u6210\u7ae0
p1927
aV\u4e00\u5f80\u65e0\u524d
p1928
aV\u4e0d\u5351\u4e0d\u4ea2
p1929
aV\u4f83\u4f83\u800c\u8c08
p1930
aV\u4e70\u691f\u8fd8\u73e0
p1931
aV\u83ba\u6b4c\u71d5\u821e
p1932
aV\u632f\u632f\u6709\u8bcd
p1933
aV\u8033\u6fe1\u76ee\u67d3
p1934
aV\u6829\u6829\u5982\u751f
p1935
aV\u7269\u6781\u5fc5\u53cd
p1936
aV\u4e0d\u6bdb\u4e4b\u5730
p1937
aV\u6cf0\u7136\u5904\u4e4b
p1938
aV\u5520\u5520\u53e8\u53e8
p1939
aV\u4e00\u89c1\u949f\u60c5
p1940
aV\u7199\u7199\u6518\u6518
p1941
aV\u91d1\u78a7\u8f89\u714c
p1942
aV\u5200\u5c71\u706b\u6d77
p1943
aV\u5341\u5b57\u8def\u53e3
p1944
aV\u62ab\u8346\u65a9\u68d8
p1945
aV\u767b\u5cf0\u9020\u6781
p1946
aV\u6545\u5f04\u7384\u865a
p1947
aV\u91d1\u5c4b\u85cf\u5a07
p1948
aV\u9762\u9762\u76f8\u89d1
p1949
aV\u9ed4\u9a74\u6280\u7a77
p1950
aV\u9e45\u6bdb\u5927\u96ea
p1951
aV\u51fa\u6c34\u8299\u84c9
p1952
aV\u558b\u558b\u4e0d\u4f11
p1953
aV\u65b0\u4ead\u5bf9\u6ce3
p1954
aV\u5175\u8352\u9a6c\u4e71
p1955
aV\u8c41\u7136\u5f00\u6717
p1956
aV\u4ec1\u4eba\u5fd7\u58eb
p1957
aV\u5ffd\u51b7\u5ffd\u70ed
p1958
aV\u4e5d\u4e5d\u5f52\u4e00
p1959
aV\u56e0\u679c\u62a5\u5e94
p1960
aV\u7fa4\u661f\u707f\u70c2
p1961
aV\u9e21\u6bdb\u849c\u76ae
p1962
aV\u8d3c\u7709\u9f20\u773c
p1963
aV\u5e72\u5c06\u83ab\u90aa
p1964
aV\u7eb8\u9189\u91d1\u8ff7
p1965
aV\u53e4\u5f80\u4eca\u6765
p1966
aV\u8273\u9633\u9ad8\u7167
p1967
aV\u6447\u5507\u9f13\u820c
p1968
aV\u8a00\u7b80\u610f\u8d45
p1969
aV\u98ce\u534e\u7edd\u4ee3
p1970
aV\u7eb8\u4e0a\u8c08\u5175
p1971
aV\u8fdc\u4ea4\u8fd1\u653b
p1972
aV\u5664\u82e5\u5bd2\u8749
p1973
aV\u4eba\u7434\u4ff1\u4ea1
p1974
aV\u4e00\u77f3\u4e8c\u9e1f
p1975
aV\u4e09\u5934\u516d\u81c2
p1976
aV\u638c\u4e0a\u660e\u73e0
p1977
aV\u4e00\u5e06\u98ce\u987a
p1978
aV\u501f\u5200\u6740\u4eba
p1979
aV\u8863\u9999\u9b13\u5f71
p1980
aV\u522b\u6709\u6d1e\u5929
p1981
aV\u8bb3\u83ab\u5982\u6df1
p1982
aV\u671b\u5c18\u83ab\u53ca
p1983
aV\u5929\u8863\u65e0\u7f1d
p1984
aV\u590f\u81f3\u672a\u81f3
p1985
aV\u9632\u60a3\u672a\u7136
p1986
aV\u5934\u6655\u76ee\u7729
p1987
aV\u53e4\u4e3a\u4eca\u7528
p1988
aV\u9f99\u76d8\u864e\u8e1e
p1989
aV\u591a\u6b64\u4e00\u4e3e
p1990
aV\u671d\u4e91\u66ae\u96e8
p1991
aV\u5938\u5938\u5176\u8c08
p1992
aV\u5bd2\u6c14\u88ad\u4eba
p1993
aV\u54ab\u5c3a\u5929\u6daf
p1994
aV\u6765\u5386\u4e0d\u660e
p1995
aV\u72fc\u541e\u864e\u54bd
p1996
aV\u671b\u5176\u9879\u80cc
p1997
aV\u547c\u98ce\u5524\u96e8
p1998
aV\u5927\u5668\u665a\u6210
p1999
aV\u5367\u85aa\u5c1d\u80c6
p2000
aV\u6469\u80a9\u63a5\u8e35
p2001
aV\u9178\u751c\u82e6\u8fa3
p2002
aV\u81ea\u9e23\u5f97\u610f
p2003
aV\u51fa\u795e\u5165\u5316
p2004
aV\u65e0\u6cd5\u65e0\u5929
p2005
aV\u4e94\u989c\u516d\u8272
p2006
aV\u6d17\u5fc3\u9769\u9762
p2007
aV\u65e7\u4ec7\u65b0\u6068
p2008
aV\u9a6c\u9769\u88f9\u5c38
p2009
aV\u4e94\u5b50\u767b\u79d1
p2010
aV\u6c38\u65e0\u6b62\u5883
p2011
aV\u6c34\u4e73\u4ea4\u878d
p2012
aV\u79f0\u5fc3\u5982\u610f
p2013
aV\u5f53\u4ec1\u4e0d\u8ba9
p2014
aV\u5341\u4e07\u706b\u6025
p2015
aV\u5fc3\u795e\u4e0d\u5b89
p2016
aV\u7a7a\u524d\u7edd\u540e
p2017
aV\u8fe5\u7136\u4e0d\u540c
p2018
aV\u68cb\u9022\u5bf9\u624b
p2019
aV\u7ed8\u58f0\u7ed8\u5f71
p2020
aV\u5deb\u5c71\u4e91\u96e8
p2021
aV\u665a\u971e\u5982\u706b
p2022
aV\u6d51\u7136\u4e00\u4f53
p2023
aV\u63a9\u8033\u76d7\u94c3
p2024
aV\u6c34\u6728\u6e05\u534e
p2025
aV\u82b1\u82b1\u516c\u5b50
p2026
aV\u5929\u4e0a\u4eba\u95f4
p2027
aV\u9752\u5c71\u4e0d\u8001
p2028
aV\u6c42\u540c\u5b58\u5f02
p2029
aV\u6708\u7259\u521d\u5347
p2030
aV\u8fdb\u9000\u7ef4\u8c37
p2031
aV\u4e1c\u5012\u897f\u6b6a
p2032
aV\u5a01\u6b66\u4e0d\u5c48
p2033
aV\u5f02\u53e3\u540c\u58f0
p2034
aV\u5fc3\u53e3\u5982\u4e00
p2035
aV\u6708\u51fa\u4e1c\u5899
p2036
aV\u79c0\u4e3d\u591a\u59ff
p2037
aV\u8c03\u864e\u79bb\u5c71
p2038
aV\u9189\u751f\u68a6\u6b7b
p2039
aV\u7ea2\u53f6\u4f3c\u706b
p2040
aV\u676f\u6c34\u8f66\u85aa
p2041
aV\u4e24\u8896\u6e05\u98ce
p2042
aV\u6bdb\u9aa8\u609a\u7136
p2043
aV\u597d\u4e8b\u591a\u78e8
p2044
aV\u9a84\u9633\u4f3c\u706b
p2045
aV\u751f\u79bb\u6b7b\u522b
p2046
aV\u5929\u6daf\u6d77\u89d2
p2047
aV\u5be5\u82e5\u6668\u661f
p2048
aV\u6b67\u8def\u4ea1\u7f8a
p2049
aV\u9f99\u6f6d\u864e\u7a74
p2050
aV\u9a6c\u5230\u529f\u6210
p2051
aV\u660e\u67aa\u6697\u7bad
p2052
aV\u6240\u5411\u62ab\u9761
p2053
aV\u5f20\u7259\u821e\u722a
p2054
aV\u5982\u5c65\u8584\u51b0
p2055
aV\u708e\u51c9\u4e16\u6001
p2056
aV\u809d\u80c6\u76f8\u7167
p2057
aV\u87fe\u5bab\u6298\u6302
p2058
aV\u4e3a\u864e\u4f5c\u4f25
p2059
aV\u8822\u8822\u6b32\u52a8
p2060
aV\u96be\u5144\u96be\u5f1f
p2061
aV\u6d25\u6d25\u6709\u5473
p2062
aV\u95e8\u5f53\u6237\u5bf9
p2063
aV\u4eba\u6d6e\u4e8e\u4e8b
p2064
aV\u4f18\u67d4\u5be1\u65ad
p2065
aV\u50e7\u591a\u7ca5\u5c11
p2066
aV\u6e56\u5149\u5c71\u8272
p2067
aV\u6212\u9a84\u6212\u8e81
p2068
aV\u5b5c\u5b5c\u4e0d\u5026
p2069
aV\u91d1\u7389\u826f\u7f18
p2070
aV\u9752\u7fe0\u6b32\u6ef4
p2071
aV\u85d5\u65ad\u4e1d\u8fde
p2072
aV\u60a0\u7136\u800c\u4e0b
p2073
aV\u7126\u5934\u70c2\u989d
p2074
aV\u671d\u971e\u707f\u70c2
p2075
aV\u94c1\u8bc1\u5982\u5c71
p2076
aV\u7d2b\u6c14\u4e1c\u6765
p2077
aV\u4e1c\u9003\u897f\u6563
p2078
aV\u5bb9\u5149\u7115\u53d1
p2079
aV\u963f\u9f3b\u5730\u72f1
p2080
aV\u4e09\u9633\u5f00\u6cf0
p2081
aV\u8e3d\u8e3d\u72ec\u884c
p2082
aV\u56de\u5149\u8fd4\u7167
p2083
aV\u8d3b\u7b11\u5927\u65b9
p2084
aV\u6c14\u52bf\u6c79\u6c79
p2085
aV\u9ad8\u624b\u5982\u6797
p2086
aV\u4e27\u5fc3\u75c5\u72c2
p2087
aV\u7b11\u5bb9\u53ef\u63ac
p2088
aV\u4e00\u624b\u906e\u5929
p2089
aV\u9ec4\u91d1\u65f6\u4ee3
p2090
aV\u4e89\u540d\u593a\u5229
p2091
aV\u4e8b\u51fa\u6709\u56e0
p2092
aV\u7ef0\u7ea6\u591a\u59ff
p2093
aV\u98ce\u666f\u5982\u753b
p2094
aV\u907f\u91cd\u5c31\u8f7b
p2095
aV\u591a\u591a\u76ca\u5584
p2096
aV\u4e3e\u8db3\u8f7b\u91cd
p2097
aV\u7eff\u6c34\u9752\u5c71
p2098
aV\u70d8\u4e91\u6258\u6708
p2099
aV\u4e0d\u6cd5\u4e4b\u5f92
p2100
aV\u8366\u8366\u5927\u7aef
p2101
aV\u559c\u4ece\u5929\u964d
p2102
aV\u98ce\u96e8\u4ea4\u52a0
p2103
aV\u8272\u5389\u5185\u834f
p2104
aV\u949f\u7075\u6bd3\u79c0
p2105
aV\u8747\u5934\u5fae\u5229
p2106
aV\u9b3c\u65a7\u795e\u5de5
p2107
aV\u6f2b\u5929\u98de\u96ea
p2108
aV\u559c\u51fa\u671b\u5916
p2109
aV\u79cb\u98ce\u843d\u53f6
p2110
aV\u552f\u6211\u72ec\u5c0a
p2111
aV\u5404\u53d6\u6240\u9700
p2112
aV\u5154\u6b7b\u72d0\u60b2
p2113
aV\u82e6\u5c3d\u7518\u6765
p2114
aV\u754f\u9996\u754f\u5c3e
p2115
aV\u7edd\u65e0\u4ec5\u6709
p2116
aV\u5de7\u820c\u5982\u7c27
p2117
aV\u9047\u4eba\u4e0d\u6dd1
p2118
aV\u98ce\u8d77\u4e91\u6d8c
p2119
aV\u77e5\u5f7c\u77e5\u5df1
p2120
aV\u679c\u5b9e\u9971\u6ee1
p2121
aV\u8131\u9896\u800c\u51fa
p2122
aV\u8352\u5c71\u91ce\u5cad
p2123
aV\u5782\u5934\u4e27\u6c14
p2124
aV\u5288\u5934\u76d6\u8138
p2125
aV\u96c6\u814b\u6210\u88d8
p2126
aV\u81ea\u66b4\u81ea\u5f03
p2127
aV\u767e\u70bc\u6210\u94a2
p2128
aV\u5982\u65e5\u4e2d\u5929
p2129
aV\u53e3\u871c\u8179\u5251
p2130
aV\u820d\u751f\u5fd8\u6b7b
p2131
aV\u6c99\u91cc\u6dd8\u91d1
p2132
aV\u539a\u4eca\u8584\u53e4
p2133
aV\u7cbe\u536b\u586b\u6d77
p2134
aV\u5de6\u987e\u53f3\u76fc
p2135
aV\u7269\u7ade\u5929\u62e9
p2136
aV\u672a\u96e8\u7ef8\u7f2a
p2137
aV\u672a\u96e8\u7ef8\u7f2d
p2138
aV\u5343\u547c\u540e\u62e5
p2139
aV\u8857\u5934\u5df7\u5c3e
p2140
aV\u70af\u70af\u6709\u795e
p2141
aV\u8d1f\u8346\u8bf7\u7f6a
p2142
aV\u864e\u53e3\u4f59\u751f
p2143
aV\u98a0\u5012\u9ed1\u767d
p2144
aV\u6d93\u6d93\u7ec6\u6d41
p2145
aV\u6ca7\u6d77\u6851\u7530
p2146
aV\u5982\u706b\u5982\u837c
p2147
aV\u4e0d\u6c42\u751a\u89e3
p2148
aV\u6ca1\u5b8c\u6ca1\u4e86
p2149
aV\u540c\u4ec7\u654c\u5ffe
p2150
aV\u4e58\u98ce\u7834\u6d6a
p2151
aV\u706b\u4e2d\u53d6\u6817
p2152
aV\u6809\u98ce\u6c90\u96e8
p2153
aV\u9e6c\u868c\u76f8\u4e89
p2154
aV\u82b1\u6735\u4e4b\u84dd
p2155
aV\u6069\u91cd\u5982\u5c71
p2156
aV\u5929\u7ecf\u5730\u4e49
p2157
aV\u58f0\u540d\u72fc\u85c9
p2158
aV\u6d41\u6c34\u65e0\u60c5
p2159
aV\u8eab\u4f53\u529b\u884c
p2160
aV\u79cb\u8272\u5b9c\u4eba
p2161
aV\u7406\u76f4\u6c14\u58ee
p2162
aV\u6070\u7136\u81ea\u5f97
p2163
aV\u53ef\u89c1\u4e00\u6591
p2164
aV\u60ac\u6881\u523a\u80a1
p2165
aV\u9531\u94e2\u5fc5\u8f83
p2166
aV\u91dc\u5e95\u62bd\u85aa
p2167
aV\u803f\u803f\u4e8e\u6000
p2168
aV\u6c89\u9c7c\u843d\u96c1
p2169
aV\u5c48\u6307\u53ef\u6570
p2170
aV\u72ec\u6811\u4e00\u5e1c
p2171
aV\u5e73\u6b65\u9752\u4e91
p2172
aV\u8d8a\u4fce\u4ee3\u5e96
p2173
aV\u5fe7\u5fc3\u5fe1\u5fe1
p2174
aV\u5916\u5f3a\u4e2d\u5e72
p2175
aV\u98ce\u548c\u65e5\u4e3d
p2176
asS'word_szm'
p2177
(dp2178
V\u5fb7\u8584\u624d\u758f
p2179
VDBCS
p2180
sV\u52c9\u4e3a\u5176\u96be
p2181
VMWQN
p2182
sV\u5bdf\u8a00\u89c2\u8272
p2183
VCYGS
p2184
sV\u8ba9\u67a3\u63a8\u68a8
p2185
VRZTL
p2186
sV\u4e0d\u901f\u4e4b\u5ba2
p2187
VBSZK
p2188
sV\u5bd2\u5c71\u8f6c\u82cd\u7fe0
p2189
VHSZCC
p2190
sV\u8377\u98ce\u9001\u9999\u6c14
p2191
VHFSXQ
p2192
sV\u9010\u9e7f\u4e2d\u539f
p2193
VZLZY
p2194
sV\u65c1\u5f81\u535a\u5f15
p2195
VPZBY
p2196
sV\u57ce\u4e0b\u4e4b\u76df
p2197
VCXZM
p2198
sV\u4ea6\u6b65\u4ea6\u8d8b
p2199
VYBYQ
p2200
sV\u5bd2\u98ce\u5439\u65e5\u77ed
p2201
VHFCRD
p2202
sV\u7089\u706b\u7eaf\u9752
p2203
VLHCQ
p2204
sV\u5730\u767d\u98ce\u8272\u5bd2
p2205
VDBFSH
p2206
sV\u6625\u7720\u4e0d\u89c9\u6653
p2207
VCMBJX
p2208
sV\u4e08\u592b\u975e\u65e0\u6cea
p2209
VZFFWL
p2210
sV\u8c8c\u5408\u795e\u79bb
p2211
VMHSL
p2212
sV\u6811\u6811\u7686\u79cb\u8272
p2213
VSSJQS
p2214
sV\u95e8\u6237\u4e4b\u89c1
p2215
VMHZJ
p2216
sV\u4ead\u768b\u6728\u53f6\u4e0b
p2217
VTGMYX
p2218
sV\u6295\u6843\u62a5\u674e
p2219
VTTBL
p2220
sV\u4e0d\u901e\u4e4b\u5f92
p2221
VBCZT
p2222
sV\u4e71\u7bad\u7a7f\u5fc3
p2223
VLJCX
p2224
sV\u72c2\u98ce\u5439\u6211\u5fc3
p2225
VKFCWX
p2226
sV\u5f00\u6e90\u8282\u6d41
p2227
VKYJL
p2228
sV\u79bb\u7fa4\u7d22\u5c45
p2229
VLQSJ
p2230
sV\u8c29\u4e0a\u4e0d\u8c29\u4e0b
p2231
VMSBMX
p2232
sV\u5357\u67ef\u4e00\u68a6
p2233
VNKYM
p2234
sV\u501a\u9a6c\u53ef\u5f85
p2235
VYMKD
p2236
sV\u80e1\u9a6c\u4f9d\u5317\u98ce
p2237
VHMYBF
p2238
sV\u4eba\u6d6e\u4e8e\u4e8b
p2239
VRFYS
p2240
sV\u91d1\u5170\u4e4b\u4ea4
p2241
VJLZJ
p2242
sV\u4e0d\u4fee\u8fb9\u5e45
p2243
VBXBF
p2244
sV\u98ce\u96e8\u5982\u6666
p2245
VFYRH
p2246
sV\u9890\u6307\u6c14\u4f7f
p2247
VYZQS
p2248
sV\u5de5\u529b\u6089\u654c
p2249
VGLXD
p2250
sV\u65e0\u6240\u4e0d\u4e3a
p2251
VWSBW
p2252
sV\u5927\u65b9\u4e4b\u5bb6
p2253
VDFZJ
p2254
sV\u8eab\u4e34\u5176\u5883
p2255
VSLQJ
p2256
sV\u5982\u5750\u6625\u98ce
p2257
VRZCF
p2258
sV\u610f\u5174\u9611\u73ca
p2259
VYXLS
p2260
sV\u5149\u602a\u9646\u79bb
p2261
VGGLL
p2262
sV\u6c81\u4eba\u5fc3\u813e
p2263
VQRXP
p2264
sV\u6587\u8fc7\u9970\u975e
p2265
VWGSF
p2266
sV\u6da3\u7136\u51b0\u91ca
p2267
VHRBS
p2268
sV\u653e\u6d6a\u5f62\u9ab8
p2269
VFLXH
p2270
sV\u7231\u5b50\u5fc3\u65e0\u5c3d
p2271
VAZXWJ
p2272
sV\u6beb\u53d1\u4e0d\u723d
p2273
VHFBS
p2274
sV\u72af\u800c\u4e0d\u6821
p2275
VFEBJ
p2276
sV\u767b\u5802\u5165\u5ba4
p2277
VDTRS
p2278
sV\u8361\u6c14\u56de\u80a0
p2279
VDQHC
p2280
sV\u54c0\u611f\u987d\u8273
p2281
VAGWY
p2282
sV\u597d\u96e8\u77e5\u65f6\u8282
p2283
VHYZSJ
p2284
sV\u4e0b\u6709\u6e05\u6c61\u6ce5
p2285
VXYQWN
p2286
sV\u5fcd\u4fca\u4e0d\u7981
p2287
VRJBJ
p2288
sV\u840d\u6c34\u76f8\u9022
p2289
VPSXF
p2290
sV\u522b\u6709\u5929\u5730
p2291
VBYTD
p2292
sV\u5bd2\u57ce\u4e00\u4ee5\u773a
p2293
VHCYYT
p2294
sV\u5b88\u682a\u5f85\u5154
p2295
VSZDT
p2296
sV\u79ef\u91cd\u96be\u8fd4
p2297
VJZNF
p2298
sV\u60e8\u6de1\u7ecf\u8425
p2299
VCDJY
p2300
sV\u53f9\u4e3a\u89c2\u6b62
p2301
VTWGZ
p2302
sV\u65e2\u5f80\u4e0d\u548e
p2303
VJWBJ
p2304
sV\u83ab\u9006\u4e4b\u4ea4
p2305
VMNZJ
p2306
sV\u66fe\u7ecf\u6ca7\u6851
p2307
VZJCS
p2308
sV\u6c34\u6027\u6768\u82b1
p2309
VSXYH
p2310
sV\u5c3e\u5927\u4e0d\u6389
p2311
VWDBD
p2312
sV\u62d6\u513f\u5e26\u5973
p2313
VTEDN
p2314
sV\u5de7\u8a00\u4ee4\u8272
p2315
VQYLS
p2316
sV\u9ec4\u949f\u5927\u5415
p2317
VHZDL
p2318
sV\u83ab\u8877\u4e00\u662f
p2319
VMZYS
p2320
sV\u660e\u65e5\u9ec4\u82b1
p2321
VMRHH
p2322
sV\u67f3\u5782\u6c5f\u4e0a\u5f71
p2323
VLCJSY
p2324
sV\u6614\u95fb\u6d1e\u5ead\u6c34
p2325
VXWDTS
p2326
sV\u6ce2\u6f9c\u8001\u6210
p2327
VBLLC
p2328
sV\u5fae\u96e8\u6c60\u5858\u89c1
p2329
VWYCTJ
p2330
sV\u54c0\u800c\u4e0d\u4f24
p2331
VAEBS
p2332
sV\u5e08\u5fc3\u81ea\u7528
p2333
VSXZY
p2334
sV\u96be\u8a00\u4e4b\u9690
p2335
VNYZY
p2336
sV\u604d\u7136\u5927\u609f
p2337
VHRDW
p2338
sV\u62fe\u4eba\u7259\u6167
p2339
VSRYH
p2340
sV\u53d1\u594b\u56fe\u5f3a
p2341
VFFTQ
p2342
sV\u529f\u8d25\u5782\u6210
p2343
VGBCC
p2344
sV\u8033\u6839\u6e05\u51c0
p2345
VEGQJ
p2346
sV\u955c\u6e56\u4e09\u767e\u91cc
p2347
VJHSBL
p2348
sV\u65e5\u6708\u4e4b\u884c
p2349
VRYZX
p2350
sV\u5c14\u865e\u6211\u8bc8
p2351
VEYWZ
p2352
sV\u6251\u6714\u8ff7\u79bb
p2353
VPSML
p2354
sV\u4ece\u4e95\u6551\u4eba
p2355
VCJJR
p2356
sV\u660e\u54f2\u4fdd\u8eab
p2357
VMZBS
p2358
sV\u5927\u76f8\u5f84\u5ead
p2359
VDXJT
p2360
sV\u6ca7\u6d77\u6a2a\u6d41
p2361
VCHHL
p2362
sV\u4e1d\u4e1d\u5165\u6263
p2363
VSSRK
p2364
sV\u535a\u89c2\u800c\u7ea6\u53d6
p2365
VBGEYQ
p2366
sV\u54c0\u4e1d\u8c6a\u7af9
p2367
VASHZ
p2368
sV\u4f1a\u5f53\u51cc\u7edd\u9876
p2369
VHDLJD
p2370
sV\u8c08\u864e\u8272\u53d8
p2371
VTHSB
p2372
sV\u6cb8\u53cd\u76c8\u5929
p2373
VFFYT
p2374
sV\u4ea4\u6d45\u8a00\u6df1
p2375
VJQYS
p2376
sV\u4e00\u8863\u5e26\u6c34
p2377
VYYDS
p2378
sV\u6728\u843d\u96c1\u5357\u6e21
p2379
VMLYND
p2380
sV\u597d\u4e3a\u4eba\u5e08
p2381
VHWRS
p2382
sV\u7099\u624b\u53ef\u70ed
p2383
VZSKR
p2384
sV\u5c71\u9e23\u8c37\u5e94
p2385
VSMGY
p2386
sV\u5fcd\u75db\u5272\u7231
p2387
VRTGA
p2388
sV\u81ea\u60ed\u5f62\u79fd
p2389
VZCXH
p2390
sV\u63a8\u6d9b\u4f5c\u6d6a
p2391
VTTZL
p2392
sV\u5947\u6587\u5171\u8d4f
p2393
VQWGS
p2394
sV\u751f\u5f53\u4f5c\u4eba\u6770
p2395
VSDZRJ
p2396
sV\u8bda\u60f6\u8bda\u6050
p2397
VCHCK
p2398
sV\u6797\u82b1\u626b\u66f4\u843d
p2399
VLHSGL
p2400
sV\u4e0d\u77e5\u6240\u4e91
p2401
VBZSY
p2402
sV\u4eca\u5915\u4f55\u5915
p2403
VJXHX
p2404
sV\u5bd2\u6885\u6700\u582a\u6068
p2405
VHMZKH
p2406
sV\u4ee5\u8033\u4ee3\u76ee
p2407
VYEDM
p2408
sV\u4e0d\u53ef\u7406\u55bb
p2409
VBKLY
p2410
sV\u4e09\u4eba\u6210\u864e
p2411
VSRCH
p2412
sV\u6c34\u843d\u77f3\u51fa
p2413
VSLSC
p2414
sV\u5e55\u5929\u5e2d\u5730
p2415
VMTXD
p2416
sV\u7ede\u5c3d\u5fc3\u673a
p2417
VJJXJ
p2418
sV\u89c1\u5f02\u601d\u8fc1
p2419
VJYSQ
p2420
sV\u4e8c\u4e09\u5176\u5fb7
p2421
VESQD
p2422
sV\u4eba\u95f2\u6842\u82b1\u843d
p2423
VRXGHL
p2424
sV\u4ef0\u4e8b\u4fef\u755c
p2425
VYSFX
p2426
sV\u7ed8\u58f0\u7ed8\u8272
p2427
VHSHS
p2428
sV\u74dc\u7530\u674e\u4e0b
p2429
VGTLX
p2430
sV\u6e10\u971c\u98ce\u51c4\u7d27
p2431
VJSFQJ
p2432
sV\u8fe2\u8fe2\u65b0\u79cb\u5915
p2433
VTTXQX
p2434
sV\u4e00\u56e2\u548c\u6c14
p2435
VYTHQ
p2436
sV\u65e0\u72ec\u6709\u5076
p2437
VWDYO
p2438
sV\u6ee1\u9762\u6625\u98ce
p2439
VMMCF
p2440
sV\u4e00\u7537\u9644\u4e66\u81f3
p2441
VYNFSZ
p2442
sV\u5927\u505a\u6587\u7ae0
p2443
VDZWZ
p2444
sV\u91d1\u9488\u5ea6\u4eba
p2445
VJZDR
p2446
sV\u4e1d\u957f\u9c7c\u8bef\u6050
p2447
VSCYWK
p2448
sV\u79ef\u6bc1\u9500\u9aa8
p2449
VJHXG
p2450
sV\u4e00\u5021\u4e09\u53f9
p2451
VYCST
p2452
sV\u77f3\u7834\u5929\u60ca
p2453
VSPTJ
p2454
sV\u6b32\u5c06\u8f7b\u9a91\u9010
p2455
VYJQQZ
p2456
sV\u4e0d\u89c9\u78a7\u5c71\u66ae
p2457
VBJBSM
p2458
sV\u6d6e\u5149\u63a0\u5f71
p2459
VFGLY
p2460
sV\u5927\u5439\u5927\u64c2
p2461
VDCDL
p2462
sV\u6302\u4e00\u6f0f\u4e07
p2463
VGYLW
p2464
sV\u4fa7\u76ee\u800c\u89c6
p2465
VCMES
p2466
sV\u4fe1\u7b14\u6d82\u9e26
p2467
VXBTY
p2468
sV\u60a0\u60a0\u6d1b\u9633\u9053
p2469
VYYLYD
p2470
sV\u6c5f\u5357\u65e0\u6240\u6709
p2471
VJNWSY
p2472
sV\u5bf9\u8584\u516c\u5802
p2473
VDBGT
p2474
sV\u7267\u7ae5\u9a91\u9ec4\u725b
p2475
VMTQHN
p2476
sV\u5473\u540c\u56bc\u8721
p2477
VWTJL
p2478
sV\u7b28\u9e1f\u5148\u98de
p2479
VBNXF
p2480
sV\u6c14\u5473\u76f8\u6295
p2481
VQWXT
p2482
sV\u8038\u4eba\u542c\u95fb
p2483
VSRTW
p2484
sV\u6c42\u5168\u8d23\u5907
p2485
VQQZB
p2486
sV\u8fd1\u4e61\u60c5\u66f4\u602f
p2487
VJXQGQ
p2488
sV\u5b64\u638c\u96be\u9e23
p2489
VGZNM
p2490
sV\u66f2\u7ec8\u594f\u96c5
p2491
VQZZY
p2492
sV\u4fe1\u8a93\u65e6\u65e6
p2493
VXSDD
p2494
sV\u6b7b\u5f97\u5176\u6240
p2495
VSDQS
p2496
sV\u6d6e\u4e91\u6e38\u5b50\u610f
p2497
VFYYZY
p2498
sV\u6d0b\u6d0b\u5927\u89c2
p2499
VYYDG
p2500
sV\u85cf\u5934\u9732\u5c3e
p2501
VCTLW
p2502
sV\u6d77\u5185\u5b58\u77e5\u5df1
p2503
VHNCZJ
p2504
sV\u56da\u9996\u57a2\u9762
p2505
VQSGM
p2506
sV\u8346\u6eaa\u767d\u77f3\u51fa
p2507
VJXBSC
p2508
sV\u72e1\u5154\u4e09\u7a9f
p2509
VJTSK
p2510
sV\u6682\u4f34\u6708\u5c06\u5f71
p2511
VZBYJY
p2512
sV\u7ec6\u96e8\u9c7c\u513f\u51fa
p2513
VXYYEC
p2514
sV\u706f\u7ea2\u9152\u7eff
p2515
VDHJL
p2516
sV\u6240\u8c13\u4f0a\u4eba
p2517
VSWYR
p2518
sV\u83ab\u9053\u4e0d\u6d88\u9b42
p2519
VMDBXH
p2520
sV\u5de7\u593a\u5929\u5de5
p2521
VQDTG
p2522
sV\u4e0d\u865e\u4e4b\u4e8b
p2523
VBYZS
p2524
sV\u4e0d\u53ef\u6536\u62fe
p2525
VBKSS
p2526
sV\u767d\u6bdb\u6d6e\u7eff\u6c34
p2527
VBMFLS
p2528
sV\u4ed8\u4e4b\u4e00\u70ac
p2529
VFZYJ
p2530
sV\u5fc3\u6f6e\u6f8e\u6e43
p2531
VXCPP
p2532
sV\u8349\u4f4e\u91d1\u57ce\u96fe
p2533
VCDJCW
p2534
sV\u76f8\u4f9d\u4e3a\u547d
p2535
VXYWM
p2536
sV\u4ecd\u601c\u6545\u4e61\u6c34
p2537
VRLGXS
p2538
sV\u4e00\u6587\u4e0d\u540d
p2539
VYWBM
p2540
sV\u8d70\u9a6c\u89c2\u82b1
p2541
VZMGH
p2542
sV\u6d0b\u6d0b\u6d12\u6d12
p2543
VYYSS
p2544
sV\u8fc7\u72b9\u4e0d\u53ca
p2545
VGYBJ
p2546
sV\u8fc7\u6625\u98ce\u5341\u91cc
p2547
VGCFSL
p2548
sV\u96e8\u8272\u79cb\u6765\u5bd2
p2549
VYSQLH
p2550
sV\u661f\u5782\u5e73\u91ce\u9614
p2551
VXCPYK
p2552
sV\u6c34\u662f\u773c\u6ce2\u6a2a
p2553
VSSYBH
p2554
sV\u7d20\u6627\u5e73\u751f
p2555
VSMPS
p2556
sV\u6708\u9ed1\u96c1\u98de\u9ad8
p2557
VYHYFG
p2558
sV\u63d0\u8981\u94a9\u7384
p2559
VTYGX
p2560
sV\u6c57\u725b\u5145\u680b
p2561
VHNCD
p2562
sV\u73ed\u8346\u9053\u6545
p2563
VBJDG
p2564
sV\u5c38\u4f4d\u7d20\u9910
p2565
VSWSC
p2566
sV\u8f7b\u6b4c\u66fc\u821e
p2567
VQGMW
p2568
sV\u51fa\u5947\u5236\u80dc
p2569
VCQZS
p2570
sV\u8d4f\u5fc3\u4e50\u4e8b
p2571
VSXLS
p2572
sV\u7247\u4e91\u5929\u5171\u8fdc
p2573
VPYTGY
p2574
sV\u9632\u5fae\u675c\u6e10
p2575
VFWDJ
p2576
sV\u9f99\u98de\u51e4\u821e
p2577
VLFFW
p2578
sV\u4e0d\u7ffc\u800c\u98de
p2579
VBYEF
p2580
sV\u6ea2\u7f8e\u4e4b\u8bcd
p2581
VYMZC
p2582
sV\u7a77\u5f62\u5c3d\u76f8
p2583
VQXJX
p2584
sV\u91ce\u706b\u70e7\u4e0d\u5c3d
p2585
VYHSBJ
p2586
sV\u58f0\u60c5\u5e76\u8302
p2587
VSQBM
p2588
sV\u91ce\u6885\u70e7\u4e0d\u5c3d
p2589
VYMSBJ
p2590
sV\u4eba\u751f\u4e0d\u76f8\u89c1
p2591
VRSBXJ
p2592
sV\u52a0\u4eba\u4e00\u7b49
p2593
VJRYD
p2594
sV\u5bd2\u968f\u4e00\u591c\u53bb
p2595
VHSYYQ
p2596
sV\u4e0d\u5351\u4e0d\u4ea2
p2597
VBBBK
p2598
sV\u7edd\u65e0\u4ec5\u6709
p2599
VJWJY
p2600
sV\u67f4\u95e8\u95fb\u72ac\u5420
p2601
VCMWQF
p2602
sV\u6ce5\u6c99\u4ff1\u4e0b
p2603
VNSJX
p2604
sV\u53e6\u773c\u76f8\u770b
p2605
VLYXK
p2606
sV\u7f6e\u4e4b\u5ea6\u5916
p2607
VZZDW
p2608
sV\u4ee4\u540d\u4e0d\u5f70
p2609
VLMBZ
p2610
sV\u4e0d\u761f\u4e0d\u706b
p2611
VBWBH
p2612
sV\u9ad8\u5c71\u666f\u884c
p2613
VGSJX
p2614
sV\u4e0b\u7b14\u6210\u7ae0
p2615
VXBCZ
p2616
sV\u8033\u63d0\u9762\u547d
p2617
VETMM
p2618
sV\u5e73\u6613\u8fd1\u4eba
p2619
VPYJR
p2620
sV\u9999\u95fb\u6d41\u6c34\u5904
p2621
VXWLSC
p2622
sV\u56e0\u4eba\u6210\u4e8b
p2623
VYRCS
p2624
sV\u9189\u6708\u9891\u4e2d\u5723
p2625
VZYPZS
p2626
sV\u4e91\u971e\u51fa\u6d77\u66d9
p2627
VYXCHS
p2628
sV\u9053\u8def\u4ee5\u76ee
p2629
VDLYM
p2630
sV\u79cb\u98ce\u751f\u6e2d\u6c34
p2631
VQFSWS
p2632
sV\u4e0d\u8d1f\u4f17\u671b
p2633
VBFZW
p2634
sV\u6d77\u65e5\u751f\u6b8b\u591c
p2635
VHRSCY
p2636
sV\u6668\u5174\u7406\u8352\u79fd
p2637
VCXLHH
p2638
sV\u61d2\u6447\u767d\u7fbd\u6247
p2639
VLYBYS
p2640
sV\u7565\u53d8\u539f\u60c5
p2641
VLBYQ
p2642
sV\u5927\u542b\u7ec6\u5165
p2643
VDHXR
p2644
sV\u58f0\u8272\u72ac\u9a6c
p2645
VSSQM
p2646
sV\u957f\u5b89\u4e00\u7247\u6708
p2647
VCAYPY
p2648
sV\u5c0f\u65f6\u4e0d\u8bc6\u6708
p2649
VXSBSY
p2650
sV\u5e94\u916c\u90fd\u4e0d\u6687
p2651
VYCDBX
p2652
sV\u98ce\u9910\u9732\u5bbf
p2653
VFCLS
p2654
sV\u522b\u5177\u5320\u5fc3
p2655
VBJJX
p2656
sV\u8c01\u8a00\u5bf8\u8349\u5fc3
p2657
VSYCCX
p2658
sV\u72d7\u54ac\u5415\u6d1e\u5bbe
p2659
VGYLDB
p2660
sV\u5f31\u9f84\u5bc4\u4e8b\u5916
p2661
VRLJSW
p2662
sV\u6d45\u659f\u4f4e\u5531
p2663
VQZDC
p2664
sV\u5343\u9524\u767e\u70bc
p2665
VQCBL
p2666
sV\u62ab\u6c99\u62e3\u91d1
p2667
VPSJJ
p2668
sV\u5f85\u4ef7\u800c\u6cbd
p2669
VDJEG
p2670
sV\u83ab\u9006\u4e8e\u5fc3
p2671
VMNYX
p2672
sV\u5fd8\u4e4e\u6240\u4ee5
p2673
VWHSY
p2674
sV\u4f46\u613f\u4eba\u957f\u4e45
p2675
VDYRCJ
p2676
sV\u56fd\u5bb6\u5de5\u5546\u5c40
p2677
VGJGSJ
p2678
sV\u6b65\u4eba\u540e\u5c18
p2679
VBRHC
p2680
sV\u79ef\u5c38\u8349\u6728\u8165
p2681
VJSCMX
p2682
sV\u5947\u6587\u5171\u6b23\u8d4f
p2683
VQWGXS
p2684
sV\u6148\u6bcd\u624b\u4e2d\u7ebf
p2685
VCMSZX
p2686
sV\u9f0e\u529b\u76f8\u52a9
p2687
VDLXZ
p2688
sV\u655d\u5e1a\u81ea\u73cd
p2689
VBZZZ
p2690
sV\u8868\u91cc\u5c71\u6cb3
p2691
VBLSH
p2692
sV\u6df1\u5c45\u4fef\u5939\u57ce
p2693
VSJFJC
p2694
sV\u9732\u4ece\u4eca\u591c\u767d
p2695
VLCJYB
p2696
sV\u5b89\u65f6\u5904\u987a
p2697
VASCS
p2698
sV\u725b\u90ce\u7ec7\u5973
p2699
VNLZN
p2700
sV\u7ffb\u6c5f\u5012\u6d77
p2701
VFJDH
p2702
sV\u5b89\u5c45\u4e50\u4e1a
p2703
VAJLY
p2704
sV\u62b1\u85aa\u6551\u706b
p2705
VBXJH
p2706
sV\u9648\u8a00\u52a1\u53bb
p2707
VCYWQ
p2708
sV\u4e0d\u4ee5\u4e3a\u7136
p2709
VBYWR
p2710
sV\u98ce\u96e8\u9001\u6625\u5f52
p2711
VFYSCG
p2712
sV\u5165\u6625\u624d\u4e03\u65e5
p2713
VRCCQR
p2714
sV\u60c5\u6295\u610f\u5408
p2715
VQTYH
p2716
sV\u611f\u65f6\u82b1\u6e85\u6cea
p2717
VGSHJL
p2718
sV\u9ad8\u5c71\u4ef0\u6b62
p2719
VGSYZ
p2720
sV\u4e0d\u7edd\u5982\u7f15
p2721
VBJRL
p2722
sV\u54c0\u5175\u5fc5\u80dc
p2723
VABBS
p2724
sV\u5f00\u95e8\u63d6\u76d7
p2725
VKMYD
p2726
sV\u9a71\u9e21\u4e0a\u6811\u6728
p2727
VQJSSM
p2728
sV\u53e3\u7891\u8f7d\u9053
p2729
VKBZD
p2730
sV\u53d6\u6cd5\u4e8e\u4e0a
p2731
VQFYS
p2732
sV\u597d\u98ce\u51ed\u501f\u529b
p2733
VHFPJL
p2734
sV\u8083\u8083\u82b1\u7d6e\u665a
p2735
VSSHXW
p2736
sV\u767e\u722a\u6320\u5fc3
p2737
VBZNX
p2738
sV\u4e0d\u4ee5\u4e3a\u610f
p2739
VBYWY
p2740
sV\u6ee1\u6708\u98de\u660e\u955c
p2741
VMYFMJ
p2742
sV\u7ea2\u8c46\u751f\u5357\u56fd
p2743
VHDSNG
p2744
sV\u5c04\u4eba\u5148\u5c04\u9a6c
p2745
VSRXSM
p2746
sV\u6ee1\u56ed\u6df1\u6d45\u8272
p2747
VMYSQS
p2748
sV\u5f62\u5f62\u8272\u8272
p2749
VXXSS
p2750
sV\u4e0d\u8096\u5b50\u5b59
p2751
VBXZS
p2752
sV\u7709\u9ad8\u773c\u4f4e
p2753
VMGYD
p2754
sV\u6fc0\u6d4a\u626c\u6e05
p2755
VJZYQ
p2756
sV\u4eba\u7434\u4ff1\u4ea1
p2757
VRQJW
p2758
sV\u6500\u8377\u5f04\u5176\u73e0
p2759
VPHNQZ
p2760
sV\u6842\u6797\u98ce\u666f\u5f02
p2761
VGLFJY
p2762
sV\u4e00\u8a00\u4e5d\u9f0e
p2763
VYYJD
p2764
sV\u5177\u4f53\u800c\u5fae
p2765
VJTEW
p2766
sV\u676f\u5f13\u86c7\u5f71
p2767
VBGSY
p2768
sV\u51c4\u51c4\u5c81\u66ae\u98ce
p2769
VQQSMF
p2770
sV\u4e0b\u91cc\u5df4\u4eba
p2771
VXLBR
p2772
sV\u6350\u8eaf\u8d74\u56fd\u96be
p2773
VJQFGN
p2774
sV\u63a8\u6ce2\u52a9\u6f9c
p2775
VTBZL
p2776
sV\u529b\u900f\u7eb8\u80cc
p2777
VLTZB
p2778
sV\u534a\u65a4\u516b\u4e24
p2779
VBJBL
p2780
sV\u5374\u4e4b\u4e0d\u606d
p2781
VQZBG
p2782
sV\u626c\u626c\u6b62\u6cb8
p2783
VYTZF
p2784
sV\u5982\u8292\u5728\u80cc
p2785
VRMZB
p2786
sV\u7433\u7405\u6ee1\u76ee
p2787
VLLMM
p2788
sV\u79cb\u83ca\u6709\u4f73\u8272
p2789
VQJYJS
p2790
sV\u6df1\u7a3d\u535a\u8003
p2791
VSJBK
p2792
sV\u542b\u82f1\u5480\u534e
p2793
VHYJH
p2794
sV\u79c0\u8272\u53ef\u9910
p2795
VXSKC
p2796
sV\u4e0d\u679d\u4e0d\u8513
p2797
VBZBM
p2798
sV\u5507\u4ea1\u9f7f\u5bd2
p2799
VCWCH
p2800
sV\u4fef\u4ef0\u4e4b\u95f4
p2801
VFYZJ
p2802
sV\u5c71\u4e2d\u591c\u6765\u6708
p2803
VSZYLY
p2804
sV\u8bb3\u83ab\u5982\u6df1
p2805
VHMRS
p2806
sV\u56f0\u77e5\u52c9\u884c
p2807
VKZMX
p2808
sV\u9ad8\u5c71\u6d41\u6c34
p2809
VGSLS
p2810
sV\u5ffd\u5ffd\u4e0d\u4e50
p2811
VHHBL
p2812
sV\u5bab\u8863\u4ea6\u6709\u540d
p2813
VGYYYM
p2814
sV\u6148\u6bcd\u501a\u95e8\u60c5
p2815
VCMYMQ
p2816
sV\u98de\u9ec4\u817e\u8fbe
p2817
VFHTD
p2818
sV\u98ce\u6696\u9e1f\u58f0\u788e
p2819
VFNNSS
p2820
sV\u54c0\u9e3f\u904d\u91ce
p2821
VAHBY
p2822
sV\u671b\u5c18\u83ab\u53ca
p2823
VWCMJ
p2824
sV\u5929\u9a6c\u884c\u7a7a
p2825
VTMXK
p2826
sV\u904d\u4f53\u9cde\u4f24
p2827
VBTLS
p2828
sV\u91d1\u58f0\u7389\u632f
p2829
VJSYZ
p2830
sV\u9519\u843d\u6709\u81f4
p2831
VCLYZ
p2832
sV\u843d\u82b1\u4eba\u72ec\u7acb
p2833
VLHRDL
p2834
sV\u6625\u98ce\u5316\u96e8
p2835
VCFHY
p2836
sV\u91c7\u83b2\u5357\u5858\u79cb
p2837
VCLNTQ
p2838
sV\u767d\u98ce\u5439\u767d\u4e91
p2839
VBFCBY
p2840
sV\u962e\u56ca\u7f9e\u6da9
p2841
VRNXS
p2842
sV\u6cbd\u540d\u9493\u8a89
p2843
VGMDY
p2844
sV\u6d25\u6d25\u4e50\u9053
p2845
VJJLD
p2846
sV\u7b49\u91cf\u9f50\u89c2
p2847
VDLQG
p2848
sV\u826f\u91d1\u7f8e\u7389
p2849
VLJMY
p2850
sV\u4ee4\u884c\u7981\u6b62
p2851
VLXJZ
p2852
sV\u4e09\u4e94\u660e\u6708\u6ee1
p2853
VSWMYM
p2854
sV\u591c\u6765\u98ce\u96e8\u58f0
p2855
VYLFYS
p2856
sV\u6c60\u5858\u751f\u6625\u8349
p2857
VCTSCC
p2858
sV\u79cb\u98ce\u5439\u4e0d\u5c3d
p2859
VQFCBJ
p2860
sV\u6708\u8272\u9189\u8fdc\u5ba2
p2861
VYSZYK
p2862
sV\u6bcf\u51b5\u6108\u4e0b
p2863
VMKYX
p2864
sV\u767d\u7389\u4e00\u676f\u9152
p2865
VBYYBJ
p2866
sV\u65e0\u58f0\u65e0\u81ed
p2867
VWSWC
p2868
sV\u5320\u5fc3\u72ec\u8fd0
p2869
VJXDY
p2870
sV\u4ece\u5584\u5982\u767b
p2871
VCSRD
p2872
sV\u671b\u5176\u9879\u80cc
p2873
VWQXB
p2874
sV\u6842\u9999\u591a\u9732\u8944
p2875
VGXDLX
p2876
sV\u6587\u60c5\u5e76\u8302
p2877
VWQBM
p2878
sV\u5bcc\u8d35\u4e0d\u80fd\u6deb
p2879
VFGBNY
p2880
sV\u5f31\u51a0\u5f04\u67d4\u7ff0
p2881
VRGNRH
p2882
sV\u6ee1\u9636\u82b3\u8349\u7eff
p2883
VMJFCL
p2884
sV\u4eba\u58f0\u9f0e\u6cb8
p2885
VRSDF
p2886
sV\u591a\u4e8b\u4e4b\u79cb
p2887
VDSZQ
p2888
sV\u5206\u5ead\u6297\u793c
p2889
VFTKL
p2890
sV\u534a\u58c1\u89c1\u6d77\u65e5
p2891
VBBJHR
p2892
sV\u51fa\u795e\u5165\u5316
p2893
VCSRH
p2894
sV\u6325\u6d12\u81ea\u5982
p2895
VHSZR
p2896
sV\u695a\u6c34\u6e05\u82e5\u7a7a
p2897
VCSQRK
p2898
sV\u7c89\u58a8\u767b\u573a
p2899
VFMDC
p2900
sV\u9ad8\u6b4c\u731b\u8fdb
p2901
VGGMJ
p2902
sV\u5938\u5938\u5176\u8bcd
p2903
VKKQC
p2904
sV\u4e3e\u5934\u671b\u660e\u6708
p2905
VJTWMY
p2906
sV\u6234\u6708\u62ab\u661f
p2907
VDYPX
p2908
sV\u4fe1\u53e3\u96cc\u9ec4
p2909
VXKCH
p2910
sV\u529f\u540d\u4e07\u91cc\u5916
p2911
VGMWLW
p2912
sV\u957f\u6b4c\u5f53\u54ed
p2913
VCGDK
p2914
sV\u9f99\u541f\u864e\u5578
p2915
VLYHX
p2916
sV\u6d1b\u9633\u7eb8\u8d35
p2917
VLYZG
p2918
sV\u5fc3\u733f\u610f\u9a6c
p2919
VXYYM
p2920
sV\u5c11\u58ee\u4e0d\u52aa\u529b
p2921
VSZBNL
p2922
sV\u5982\u6570\u5bb6\u73cd
p2923
VRSJZ
p2924
sV\u4e0d\u6613\u4e4b\u8bba
p2925
VBYZL
p2926
sV\u5984\u81ea\u83f2\u8584
p2927
VWZFB
p2928
sV\u75be\u8a00\u5389\u8272
p2929
VJYLS
p2930
sV\u949f\u9e23\u9f0e\u98df
p2931
VZMDS
p2932
sV\u671d\u6765\u5165\u5ead\u6811
p2933
VCLRTS
p2934
sV\u5f39\u51a0\u76f8\u5e86
p2935
VDGXQ
p2936
sV\u6765\u65e5\u65b9\u957f
p2937
VLRFC
p2938
sV\u6c5f\u4f5c\u9752\u7f57\u5e26
p2939
VJZQLD
p2940
sV\u547c\u4e4b\u6b32\u51fa
p2941
VHZYC
p2942
sV\u5c0f\u5a03\u6491\u5c0f\u8247
p2943
VXWCXT
p2944
sV\u5f53\u65f6\u7236\u6bcd\u5ff5
p2945
VDSFMN
p2946
sV\u695a\u695a\u53ef\u601c
p2947
VCCKL
p2948
sV\u51b0\u6e05\u7389\u6d01
p2949
VBQYJ
p2950
sV\u52b3\u71d5\u5206\u98de
p2951
VLYFF
p2952
sV\u4f11\u621a\u4e0e\u5171
p2953
VXQYG
p2954
sV\u751f\u5f53\u590d\u6765\u5f52
p2955
VSDFLG
p2956
sV\u4e1d\u6069\u53d1\u6028
p2957
VSEFY
p2958
sV\u601d\u541b\u5982\u6d41\u6c34
p2959
VSJRLS
p2960
sV\u5c61\u8bd5\u4e0d\u723d
p2961
VLSBS
p2962
sV\u4f11\u621a\u76f8\u5173
p2963
VXQXG
p2964
sV\u4e0d\u803b\u4e0b\u95ee
p2965
VBCXW
p2966
sV\u6c11\u6028\u6cb8\u817e
p2967
VMYFT
p2968
sV\u63a8\u71e5\u5c45\u6e7f
p2969
VTZJS
p2970
sV\u6728\u4eba\u77f3\u5fc3
p2971
VMRSX
p2972
sV\u4e00\u6795\u9ec4\u7cb1
p2973
VYZHL
p2974
sV\u80f8\u65e0\u57ce\u5e9c
p2975
VXWCF
p2976
sV\u6539\u5934\u6362\u9762
p2977
VGTHM
p2978
sV\u60c5\u4e0d\u81ea\u80dc
p2979
VQBZS
p2980
sV\u7eff\u6811\u6751\u8fb9\u5408
p2981
VLSCBH
p2982
sV\u4e1c\u98ce\u7740\u610f
p2983
VDFZY
p2984
sV\u95ed\u95e8\u9020\u8f66
p2985
VBMZC
p2986
sV\u5343\u592b\u6240\u6307
p2987
VQFSZ
p2988
sV\u5439\u6bdb\u6c42\u75b5
p2989
VCMQC
p2990
sV\u4e0d\u89c1\u53bb\u5e74\u4eba
p2991
VBJQNR
p2992
sV\u7978\u8d77\u8427\u5899
p2993
VHQXQ
p2994
sV\u6539\u5f26\u66f4\u5f20
p2995
VGXGZ
p2996
sV\u7b14\u8d70\u9f99\u86c7
p2997
VBZLS
p2998
sV\u7f9a\u7f8a\u6302\u89d2
p2999
VLYGJ
p3000
sV\u7a17\u5b98\u91ce\u53f2
p3001
VBGYS
p3002
sV\u4e00\u9f13\u4f5c\u6c14
p3003
VYGZQ
p3004
sV\u7af9\u8272\u6eaa\u4e0b\u7eff
p3005
VZSXXL
p3006
sV\u515a\u540c\u4f10\u5f02
p3007
VDTFY
p3008
sV\u9e7f\u6b7b\u8c01\u624b
p3009
VLSSS
p3010
sV\u613f\u5f97\u4e00\u4eba\u5fc3
p3011
VYDYRX
p3012
sV\u597d\u6574\u4ee5\u6687
p3013
VHZYX
p3014
sV\u65e5\u66ae\u82cd\u5c71\u8fdc
p3015
VRMCSY
p3016
sV\u54cd\u904f\u884c\u4e91
p3017
VXEXY
p3018
sV\u7ec8\u5357\u9634\u5cad\u79c0
p3019
VZNYLX
p3020
sV\u629b\u7816\u5f15\u7389
p3021
VPZYY
p3022
sV\u56fd\u5bb6\u7edf\u4e00
p3023
VGJTY
p3024
sV\u6309\u90e8\u5c31\u73ed
p3025
VABJB
p3026
sV\u7a97\u524d\u660e\u6708\u5149
p3027
VCQMYG
p3028
sV\u5927\u5feb\u4eba\u5fc3
p3029
VDKRX
p3030
sV\u8fdc\u89c2\u5c71\u6709\u8272
p3031
VYGSYS
p3032
sV\u9761\u9761\u4e4b\u97f3
p3033
VMMZY
p3034
sV\u6349\u895f\u89c1\u8098
p3035
VZJJZ
p3036
sV\u4e0d\u53ef\u601d\u8bae
p3037
VBKSY
p3038
sV\u9ec4\u949f\u6bc1\u5f03
p3039
VHZHQ
p3040
sV\u522e\u76ee\u76f8\u770b
p3041
VGMXK
p3042
sV\u81ea\u60ed\u6d45\u8584
p3043
VZCQB
p3044
sV\u5929\u9ad8\u5730\u539a
p3045
VTGDH
p3046
sV\u603b\u89d2\u4e4b\u4ea4
p3047
VZJZJ
p3048
sV\u5507\u9f7f\u76f8\u4f9d
p3049
VCCXY
p3050
sV\u98ce\u5149\u4eba\u4e0d\u89c9
p3051
VFGRBJ
p3052
sV\u5145\u8033\u4e0d\u95fb
p3053
VCEBW
p3054
sV\u591c\u96e8\u526a\u6625\u97ed
p3055
VYYJCJ
p3056
sV\u5de7\u820c\u5982\u7c27
p3057
VQSRH
p3058
sV\u7d22\u7136\u5be1\u5473
p3059
VSRGW
p3060
sV\u51b0\u58f6\u79cb\u6c34
p3061
VBHQS
p3062
sV\u4e0d\u5411\u4e1c\u5c71\u4e45
p3063
VBXDSJ
p3064
sV\u54b8\u4e0e\u7ef4\u65b0
p3065
VXYWX
p3066
sV\u6dcb\u6f13\u5c3d\u81f4
p3067
VLLJZ
p3068
sV\u897f\u4e0a\u83b2\u82b1\u5c71
p3069
VXSLHS
p3070
sV\u884c\u5c06\u5c31\u6728
p3071
VXJJM
p3072
sV\u8361\u80f8\u751f\u5c42\u4e91
p3073
VDXSCY
p3074
sV\u8033\u719f\u80fd\u8be6
p3075
VESNX
p3076
sV\u4ece\u957f\u8ba1\u8bae
p3077
VCCJY
p3078
sV\u5929\u660e\u767b\u524d\u9014
p3079
VTMDQT
p3080
sV\u5982\u5c65\u8584\u51b0
p3081
VRLBB
p3082
sV\u591c\u6765\u5357\u98ce\u8d77
p3083
VYLNFQ
p3084
sV\u56fd\u7834\u5c71\u6cb3\u5728
p3085
VGPSHZ
p3086
sV\u89c1\u5fae\u77e5\u8457
p3087
VJWZZ
p3088
sV\u660e\u6708\u51fa\u5929\u5c71
p3089
VMYCTS
p3090
sV\u5899\u89d2\u6570\u679d\u6885
p3091
VQJSZM
p3092
sV\u5927\u800c\u65e0\u5f53
p3093
VDEWD
p3094
sV\u5f92\u4e71\u4eba\u610f
p3095
VTLRY
p3096
sV\u5165\u5ba4\u64cd\u6208
p3097
VRSCG
p3098
sV\u4e00\u6761\u85e4\u5f84\u7eff
p3099
VYTTJL
p3100
sV\u65e0\u5984\u4e4b\u707e
p3101
VWWZZ
p3102
sV\u70c8\u58eb\u66ae\u5e74
p3103
VLSMN
p3104
sV\u96be\u5144\u96be\u5f1f
p3105
VNXND
p3106
sV\u9a87\u4eba\u542c\u95fb
p3107
VHRTW
p3108
sV\u80f6\u67f1\u9f13\u745f
p3109
VJZGS
p3110
sV\u4e00\u770b\u80a0\u4e00\u65ad
p3111
VYKCYD
p3112
sV\u62bd\u85aa\u6b62\u6cb8
p3113
VCXZF
p3114
sV\u804a\u4ee5\u81ea\u6170
p3115
VLYZW
p3116
sV\u72ed\u8def\u76f8\u9022
p3117
VXLXF
p3118
sV\u53d8\u672c\u52a0\u5389
p3119
VBBJL
p3120
sV\u5b89\u8eab\u7acb\u547d
p3121
VASLM
p3122
sV\u66f2\u5f84\u901a\u5e7d\u5904
p3123
VQJTYC
p3124
sV\u5ba2\u8def\u9752\u5c71\u5916
p3125
VKLQSW
p3126
sV\u6797\u6697\u8349\u60ca\u98ce
p3127
VLACJF
p3128
sV\u695a\u695a\u6709\u81f4
p3129
VCCYZ
p3130
sV\u6653\u770b\u7ea2\u6e7f\u5904
p3131
VXKHSC
p3132
sV\u60c5\u89c1\u52bf\u5c48
p3133
VQJSQ
p3134
sV\u67f3\u8272\u9ec4\u91d1\u5ae9
p3135
VLSHJN
p3136
sV\u5fc3\u6709\u4f59\u60b8
p3137
VXYYJ
p3138
sV\u559c\u7ed3\u91d1\u5170
p3139
VXJJL
p3140
sV\u655d\u5e1a\u5343\u91d1
p3141
VBZQJ
p3142
sV\u65e0\u53ef\u539a\u975e
p3143
VWKHF
p3144
sV\u66b4\u864e\u51af\u6cb3
p3145
VBHFH
p3146
sV\u6325\u624b\u81ea\u5179\u53bb
p3147
VHSZZQ
p3148
sV\u7eff\u7af9\u542b\u65b0\u7c89
p3149
VLZHXF
p3150
sV\u5f80\u4e8b\u5df2\u6210\u7a7a
p3151
VWSYCK
p3152
sV\u6625\u8349\u5e74\u5e74\u7eff
p3153
VCCNNL
p3154
sV\u4e00\u7b14\u62b9\u6740
p3155
VYBMS
p3156
sV\u4e0d\u4e0a\u4e0d\u4e0b
p3157
VBSBX
p3158
sV\u8bd5\u95ee\u5377\u5e18\u4eba
p3159
VSWJLR
p3160
sV\u4e3e\u676f\u9080\u660e\u6708
p3161
VJBYMY
p3162
sV\u8981\u8a00\u4e0d\u70e6
p3163
VYYBF
p3164
sV\u5706\u8377\u6d6e\u5c0f\u53f6
p3165
VYHFXY
p3166
sV\u54d1\u7136\u5931\u7b11
p3167
VYRSX
p3168
sV\u5317\u98ce\u5229\u5982\u5251
p3169
VBFLRJ
p3170
sV\u65e0\u4eba\u4e3a\u5f79
p3171
VWRWY
p3172
sV\u5fc3\u8361\u795e\u9a70
p3173
VXDSC
p3174
sV\u89c1\u4ec1\u89c1\u667a
p3175
VJRJZ
p3176
sV\u56e0\u96be\u89c1\u5de7
p3177
VYNJQ
p3178
sV\u98ce\u52b2\u89d2\u5f13\u9e23
p3179
VFJJGM
p3180
sV\u4e0d\u60c5\u4e4b\u8bf7
p3181
VBQZQ
p3182
sV\u656c\u8c22\u4e0d\u654f
p3183
VJXBM
p3184
sV\u5343\u91cc\u5171\u5982\u4f55
p3185
VQLGRH
p3186
sV\u843d\u82b1\u5982\u770b\u610f
p3187
VLHRYY
p3188
sV\u6614\u65f6\u4eba\u5df2\u6ca1
p3189
VXSRYM
p3190
sV\u7ec6\u8349\u5fae\u98ce\u5cb8
p3191
VXCWFA
p3192
sV\u795e\u6c14\u6d3b\u73b0
p3193
VSQHX
p3194
sV\u91ce\u65f7\u5929\u4f4e\u6811
p3195
VYKTDS
p3196
sV\u671d\u95fb\u5915\u6b7b
p3197
VCWXS
p3198
sV\u884c\u8272\u5306\u5306
p3199
VXSCC
p3200
sV\u54cd\u5f7b\u4e91\u9704
p3201
VXCYX
p3202
sV\u592b\u5c3a\u6709\u6240\u77ed
p3203
VFCYSD
p3204
sV\u663e\u4eb2\u626c\u540d
p3205
VXQYM
p3206
sV\u767d\u9a79\u8fc7\u9699
p3207
VBJGX
p3208
sV\u767e\u65e0\u804a\u8d56
p3209
VBWLL
p3210
sV\u79cb\u98ce\u8427\u745f
p3211
VQFXS
p3212
sV\u4e0d\u6cd5\u5e38\u53ef
p3213
VBFCK
p3214
sV\u767e\u8bfb\u4e0d\u538c
p3215
VBDBY
p3216
sV\u66fe\u51e0\u4f55\u65f6
p3217
VZJHS
p3218
sV\u5927\u8179\u4fbf\u4fbf
p3219
VDFBB
p3220
sV\u4e0d\u865e\u4e4b\u8a89
p3221
VBYZY
p3222
sV\u5f53\u65f6\u660e\u6708\u5728
p3223
VDSMYZ
p3224
sV\u6ee1\u8179\u7ecf\u7eb6
p3225
VMFJL
p3226
sV\u55a7\u95f9\u8986\u6625\u6d32
p3227
VXNFCZ
p3228
sV\u5927\u800c\u5316\u4e4b
p3229
VDEHZ
p3230
sV\u9996\u5f53\u5176\u51b2
p3231
VSDQC
p3232
sV\u9ad8\u8c08\u9614\u8bba
p3233
VGTKL
p3234
sV\u6539\u5f26\u6613\u8f99
p3235
VGXYZ
p3236
sV\u5c71\u968f\u5e73\u91ce\u5c3d
p3237
VSSPYJ
p3238
sV\u8e0c\u8e87\u6ee1\u5fd7
p3239
VCCMZ
p3240
sV\u9c8d\u9c7c\u4e4b\u8086
p3241
VBYZS
p3242
sV\u89e3\u843d\u4e09\u79cb\u53f6
p3243
VJLSQY
p3244
sV\u6587\u5c71\u4f1a\u6d77
p3245
VWSHH
p3246
sV\u671f\u671f\u827e\u827e
p3247
VQQAA
p3248
sV\u5b89\u6b65\u5f53\u8f66
p3249
VABDC
p3250
sV\u4e00\u5b54\u4e4b\u89c1
p3251
VYKZJ
p3252
sV\u4eba\u6ee1\u4e3a\u60a3
p3253
VRMWH
p3254
sV\u6df1\u6797\u4eba\u4e0d\u77e5
p3255
VSLRBZ
p3256
sV\u4e00\u5f97\u4e4b\u89c1
p3257
VYDZJ
p3258
sV\u4eba\u5fc3\u5982\u9762
p3259
VRXRM
p3260
sV\u611f\u6fc0\u6d95\u96f6
p3261
VGJTL
p3262
sV\u5dee\u5f3a\u4eba\u610f
p3263
VCQRY
p3264
sV\u5b64\u4e91\u5c06\u91ce\u9e64
p3265
VGYJYH
p3266
sV\u4e0d\u80dc\u5176\u70e6
p3267
VBSQF
p3268
sV\u674e\u4ee3\u6843\u50f5
p3269
VLDTJ
p3270
sV\u79cb\u58f0\u4e07\u6237\u7af9
p3271
VQSWHZ
p3272
sV\u7a77\u800c\u540e\u5de5
p3273
VQEHG
p3274
sV\u523b\u9aa8\u94ed\u5fc3
p3275
VKGMX
p3276
sV\u91d1\u79d1\u7389\u5f8b
p3277
VJKYL
p3278
sV\u4e00\u4e18\u4e4b\u8c89
p3279
VYQZH
p3280
sV\u6c5f\u6d41\u5929\u5730\u5916
p3281
VJLTDW
p3282
sV\u532a\u5937\u6240\u601d
p3283
VFYSS
p3284
sV\u6765\u8005\u53ef\u8ffd
p3285
VLZKZ
p3286
sV\u71d5\u8349\u5982\u78a7\u4e1d
p3287
VYCRBS
p3288
sV\u7231\u5c4b\u53ca\u4e4c
p3289
VAWJW
p3290
sV\u53e4\u9053\u70ed\u80a0
p3291
VGDRC
p3292
sV\u4e0d\u7ecf\u4e4b\u8c08
p3293
VBJZT
p3294
sV\u4e07\u4eba\u7a7a\u5df7
p3295
VWRKX
p3296
sV\u6625\u98ce\u5f97\u610f
p3297
VCFDY
p3298
sV\u8377\u9999\u9500\u665a\u590f
p3299
VHXXWX
p3300
sV\u4e49\u5f62\u4e8e\u8272
p3301
VYXYS
p3302
sV\u76f8\u9001\u60c5\u65e0\u9650
p3303
VXSQWX
p3304
sV\u6708\u4e0a\u67f3\u68a2\u5934
p3305
VYSLST
p3306
sV\u8033\u95fb\u76ee\u7779
p3307
VEWMD
p3308
sV\u96e8\u8352\u6df1\u9662\u83ca
p3309
VYHSYJ
p3310
sV\u62ab\u809d\u6ca5\u80c6
p3311
VPGLD
p3312
sV\u521a\u6b63\u4e0d\u963f
p3313
VGZBA
p3314
sV\u76f8\u89c1\u6068\u665a
p3315
VXJHW
p3316
sV\u5357\u8f95\u5317\u8f99
p3317
VNYBZ
p3318
sV\u8457\u4f5c\u7b49\u8eab
p3319
VZZDS
p3320
sV\u60df\u5999\u60df\u8096
p3321
VWMWX
p3322
sV\u76f8\u601d\u4f3c\u6d77\u6df1
p3323
VXSSHS
p3324
sV\u6025\u4e0d\u53ef\u8010
p3325
VJBKN
p3326
sV\u851a\u4e3a\u5927\u89c2
p3327
VWWDG
p3328
sV\u5fc3\u4f3c\u53cc\u4e1d\u7f51
p3329
VXSSSW
p3330
sV\u9f99\u86c7\u98de\u52a8
p3331
VLSFD
p3332
sV\u6d77\u4e0a\u751f\u660e\u6708
p3333
VHSSMY
p3334
sV\u5929\u82b1\u4e71\u5760
p3335
VTHLZ
p3336
sV\u540d\u5c71\u4e8b\u4e1a
p3337
VMSSY
p3338
sV\u5b89\u571f\u91cd\u8fc1
p3339
VATZQ
p3340
sV\u751f\u7075\u6d82\u70ad
p3341
VSLTT
p3342
sV\u51b7\u82e5\u51b0\u971c
p3343
VLRBS
p3344
sV\u7267\u4eba\u9a71\u728a\u8fd4
p3345
VMRQDF
p3346
sV\u4e49\u65e0\u53cd\u987e
p3347
VYWFG
p3348
sV\u7b14\u843d\u60ca\u98ce\u96e8
p3349
VBLJFY
p3350
sV\u5904\u5fc3\u79ef\u8651
p3351
VCXJL
p3352
sV\u539a\u6b64\u8584\u5f7c
p3353
VHCBB
p3354
sV\u522b\u6709\u7528\u5fc3
p3355
VBYYX
p3356
sV\u98ce\u8d77\u4e91\u6d8c
p3357
VFQYY
p3358
sV\u5b89\u4e4b\u82e5\u7d20
p3359
VAZRS
p3360
sV\u65b9\u5174\u672a\u827e
p3361
VFXWA
p3362
sV\u7a7f\u4e91\u88c2\u77f3
p3363
VCYLS
p3364
sV\u8d77\u6b7b\u56de\u751f
p3365
VQSHS
p3366
sV\u97f3\u5bb9\u5b9b\u5728
p3367
VYRWZ
p3368
sV\u70fd\u706b\u8fde\u4e09\u6708
p3369
VFHLSY
p3370
sV\u660e\u6708\u51c0\u677e\u6797
p3371
VMYJSL
p3372
sV\u5c71\u6c14\u65e5\u5915\u4f73
p3373
VSQRXJ
p3374
sV\u6697\u6e21\u9648\u4ed3
p3375
VADCC
p3376
sV\u76ee\u4e0d\u4ea4\u776b
p3377
VMBJJ
p3378
sV\u62b1\u6b8b\u5b88\u7f3a
p3379
VBCSQ
p3380
sV\u4e71\u4e91\u4f4e\u8584\u66ae
p3381
VLYDBM
p3382
sV\u4ef0\u4e4b\u5f25\u9ad8
p3383
VYZMG
p3384
sV\u82e6\u5fc3\u5b64\u8be3
p3385
VKXGY
p3386
sV\u6587\u4e0d\u52a0\u70b9
p3387
VWBJD
p3388
sV\u610f\u6c14\u7528\u4e8b
p3389
VYQYS
p3390
sV\u4e0d\u52a8\u58f0\u8272
p3391
VBDSS
p3392
sV\u6ca7\u6d77\u4e00\u7c9f
p3393
VCHYS
p3394
sV\u8feb\u4e0d\u53ca\u5f85
p3395
VPBJD
p3396
sV\u9e1f\u5bbf\u6c60\u8fb9\u6811
p3397
VNSCBS
p3398
sV\u5c71\u5149\u60a6\u9e1f\u6027
p3399
VSGYNX
p3400
sV\u62ed\u76ee\u4ee5\u5f85
p3401
VSMYD
p3402
sV\u7b14\u9163\u58a8\u9971
p3403
VBHMB
p3404
sV\u75db\u5b9a\u601d\u75db
p3405
VTDST
p3406
sV\u6ee1\u57ce\u98ce\u96e8
p3407
VMCFY
p3408
sV\u767d\u6768\u591a\u60b2\u98ce
p3409
VBYDBF
p3410
sV\u767e\u8eab\u4f55\u8d4e
p3411
VBSHS
p3412
sV\u7ed3\u53d1\u4e3a\u592b\u59bb
p3413
VJFWFQ
p3414
sV\u7cbe\u536b\u586b\u6d77
p3415
VJWTH
p3416
sV\u5c81\u5bd2\u77e5\u677e\u67cf
p3417
VSHZSB
p3418
sV\u86ca\u60d1\u4eba\u5fc3
p3419
VGHRX
p3420
sV\u9057\u98ce\u6210\u7ade\u6e21
p3421
VYFCJD
p3422
sV\u957f\u6c5f\u4e00\u5e06\u8fdc
p3423
VCJYFY
p3424
sV\u660e\u671d\u671b\u4e61\u5904
p3425
VMCWXC
p3426
sV\u809d\u8111\u6d82\u5730
p3427
VGNTD
p3428
sV\u6d69\u5982\u70df\u6d77
p3429
VHRYH
p3430
sV\u4e0d\u4e00\u800c\u8db3
p3431
VBYEZ
p3432
sV\u96d5\u866b\u5c0f\u6280
p3433
VDCXJ
p3434
sV\u6025\u7ba1\u7e41\u5f26
p3435
VJGFX
p3436
sV\u82d7\u800c\u4e0d\u79c0
p3437
VMEBX
p3438
sV\u5f7b\u5934\u5f7b\u5c3e
p3439
VCTCW
p3440
sV\u975e\u5f02\u4eba\u4efb
p3441
VFYRR
p3442
sV\u65e5\u957f\u4e00\u7ebf
p3443
VRCYX
p3444
sV\u5bf9\u6ce3\u725b\u8863
p3445
VDQNY
p3446
sV\u5b89\u8d2b\u4e50\u9053
p3447
VAPLD
p3448
sV\u6ca7\u6d77\u6851\u7530
p3449
VCHST
p3450
sV\u53c8\u9001\u738b\u5b59\u53bb
p3451
VYSWSQ
p3452
sV\u66ae\u4e91\u6625\u6811
p3453
VMYCS
p3454
sV\u6da7\u6237\u5bc2\u65e0\u4eba
p3455
VJHJWR
p3456
sV\u9ec4\u82b1\u665a\u8282
p3457
VHHWJ
p3458
sV\u671d\u524d\u5915\u60d5
p3459
VCQXT
p3460
sV\u6708\u51fa\u60ca\u5c71\u9e1f
p3461
VYCJSN
p3462
sV\u9053\u8c8c\u5cb8\u7136
p3463
VDMAR
p3464
sV\u97ad\u8f9f\u5165\u91cc
p3465
VBBRL
p3466
sV\u8349\u67af\u9e70\u773c\u75be
p3467
VCKYYJ
p3468
sV\u6625\u98ce\u4e0d\u76f8\u8bc6
p3469
VCFBXS
p3470
sV\u660e\u6708\u677e\u95f4\u7167
p3471
VMYSJZ
p3472
sV\u6797\u6797\u603b\u603b
p3473
VLLZZ
p3474
sV\u5927\u5feb\u6735\u9890
p3475
VDKDY
p3476
sV\u4e0d\u520a\u4e4b\u8bba
p3477
VBKZL
p3478
sV\u7ffb\u4e91\u8986\u96e8
p3479
VFYFY
p3480
sV\u5c71\u62b9\u5fae\u4e91
p3481
VSMWY
p3482
sV\u5f97\u9647\u671b\u8700
p3483
VDLWS
p3484
sV\u706b\u6811\u94f6\u82b1\u5408
p3485
VHSYHH
p3486
sV\u5927\u5904\u843d\u58a8
p3487
VDCLM
p3488
sV\u9e26\u9ed8\u96c0\u9759
p3489
VYMQJ
p3490
sV\u5f53\u52a1\u4e4b\u6025
p3491
VDWZJ
p3492
sV\u5343\u5c71\u9e1f\u98de\u7edd
p3493
VQSNFJ
p3494
sV\u5947\u8d27\u53ef\u5c45
p3495
VQHKJ
p3496
sV\u5927\u6709\u6587\u7ae0
p3497
VDYWZ
p3498
sV\u8bd5\u6d47\u6865\u4e0b\u6c34
p3499
VSJQXS
p3500
sV\u6625\u8def\u96e8\u6dfb\u82b1
p3501
VCLYTH
p3502
sV\u826f\u5de5\u5fc3\u82e6
p3503
VLGXK
p3504
sV\u72ec\u5177\u6167\u773c
p3505
VDJHY
p3506
sV\u767d\u53d1\u60b2\u82b1\u843d
p3507
VBFBHL
p3508
sV\u6291\u626c\u987f\u632b
p3509
VYYDC
p3510
sV\u8bc4\u5934\u54c1\u8db3
p3511
VPTPZ
p3512
sV\u6625\u665a\u7eff\u91ce\u79c0
p3513
VCWLYX
p3514
sV\u6d1e\u82e5\u89c2\u706b
p3515
VDRGH
p3516
sV\u957f\u547d\u5bcc\u8d35
p3517
VCMFG
p3518
sV\u6ca7\u6d77\u9057\u73e0
p3519
VCHYZ
p3520
sV\u6ea2\u4e8e\u8a00\u8868
p3521
VYYYB
p3522
sV\u8bfb\u4e66\u7834\u4e07\u5377
p3523
VDSPWJ
p3524
sV\u5426\u6781\u6cf0\u6765
p3525
VFJTL
p3526
sV\u5357\u98ce\u4e0d\u7ade
p3527
VNFBJ
p3528
sV\u4e45\u5047\u4e0d\u5f52
p3529
VJJBG
p3530
sV\u5c11\u4e0d\u66f4\u4e8b
p3531
VSBGS
p3532
sV\u8eab\u5fc3\u4ea4\u75c5
p3533
VSXJB
p3534
sV\u8fdf\u65e5\u6c5f\u5c71\u4e3d
p3535
VCRJSL
p3536
sV\u76ae\u91cc\u9633\u79cb
p3537
VPLYQ
p3538
sV\u65e0\u6240\u4e0d\u81f3
p3539
VWSBZ
p3540
sV\u4e91\u6765\u5c71\u66f4\u4f73
p3541
VYLSGJ
p3542
sV\u4e0d\u540d\u4e00\u6587
p3543
VBMYW
p3544
sV\u8749\u566a\u6797\u903e\u9759
p3545
VCZLYJ
p3546
sV\u9b3c\u65a7\u795e\u5de5
p3547
VGFSG
p3548
sV\u91d1\u76f8\u7389\u8d28
p3549
VJXYZ
p3550
sV\u6625\u79cb\u7b14\u6cd5
p3551
VCQBF
p3552
sV\u51b7\u773c\u65c1\u89c2
p3553
VLYPG
p3554
sV\u542b\u57a2\u5fcd\u8fb1
p3555
VHGRR
p3556
sV\u9996\u9f20\u4e24\u7aef
p3557
VSSLD
p3558
sV\u803f\u803f\u4e8e\u6000
p3559
VGGYH
p3560
sV\u4e00\u9cde\u534a\u722a
p3561
VYLBZ
p3562
sV\u7edd\u5c11\u5206\u7518
p3563
VJSFG
p3564
sV\u706b\u4e2d\u53d6\u6817
p3565
VHZQL
p3566
sV\u76f8\u53bb\u65e5\u5df2\u8fdc
p3567
VXQRYY
p3568
sV\u6b32\u7a77\u5343\u91cc\u76ee
p3569
VYQQLM
p3570
sV\u5165\u6211\u76f8\u601d\u95e8
p3571
VRWXSM
p3572
sV\u6d41\u6c34\u5982\u6709\u610f
p3573
VLSRYY
p3574
ss.