c__builtin__
set
p1
((lp2
V\u58a8\u5b88\u6210\u89c4
p3
aV\u9752\u5929\u767d\u65e5
p4
aV\u540d\u80dc\u53e4\u8ff9
p5
aV\u8822\u8822\u6b32\u52a8
p6
aV\u8349\u6728\u7686\u5175
p7
aV\u6625\u6696\u82b1\u5f00
p8
aV\u5367\u85aa\u5c1d\u80c6
p9
aV\u4e2d\u6d41\u7825\u67f1
p10
aV\u793c\u4eea\u4e4b\u90a6
p11
aV\u864e\u89c6\u7708\u7708
p12
aV\u9732\u6c34\u592b\u59bb
p13
aV\u8fd0\u7b79\u5e37\u5e44
p14
aV\u63d2\u7fc5\u96be\u98de
p15
aV\u955c\u82b1\u6c34\u6708
p16
aV\u4e07\u91cc\u957f\u57ce
p17
aV\u6ce2\u6d9b\u6c79\u6d8c
p18
aV\u6c90\u7334\u800c\u51a0
p19
aV\u4ea6\u6b65\u4ea6\u8d8b
p20
aV\u5929\u4e0b\u4e3a\u516c
p21
aV\u9633\u6625\u767d\u96ea
p22
aV\u56f4\u9b4f\u6551\u8d75
p23
aV\u58f0\u8272\u72ac\u9a6c
p24
aV\u843d\u82b1\u6d41\u6c34
p25
aV\u9526\u4e0a\u6dfb\u82b1
p26
aV\u53f8\u7a7a\u89c1\u60ef
p27
aV\u753b\u5730\u4e3a\u7262
p28
aV\u5927\u6d6a\u6dd8\u6c99
p29
aV\u5f00\u6e90\u8282\u6d41
p30
aV\u8d70\u9a6c\u89c2\u82b1
p31
aV\u5357\u67ef\u4e00\u68a6
p32
aV\u5927\u6c5f\u4e1c\u53bb
p33
aV\u6c34\u6ef4\u77f3\u7a7f
p34
aV\u9ad8\u670b\u6ee1\u5ea7
p35
aV\u94c1\u77f3\u5fc3\u80a0
p36
aV\u5439\u6bdb\u6c42\u75b5
p37
aV\u6f78\u7136\u6cea\u4e0b
p38
aV\u9f50\u5927\u975e\u5076
p39
aV\u4e3e\u4e00\u53cd\u4e09
p40
aV\u72ed\u8def\u76f8\u9022
p41
aV\u9999\u8349\u7f8e\u4eba
p42
aV\u8f66\u6c34\u9a6c\u9f99
p43
aV\u9ad8\u5c4b\u5efa\u74f4
p44
aV\u98ce\u534e\u6b63\u8302
p45
aV\u541b\u5b50\u597d\u9011
p46
aV\u9a6c\u9996\u662f\u77bb
p47
aV\u9f99\u9a6c\u7cbe\u795e
p48
aV\u4ea1\u7f8a\u8865\u7262
p49
aV\u6c81\u4eba\u5fc3\u813e
p50
aV\u671d\u4e09\u66ae\u56db
p51
aV\u6587\u8fc7\u9970\u975e
p52
aV\u6b23\u6b23\u5411\u8363
p53
aV\u66b4\u6b84\u5929\u7269
p54
aV\u55e4\u4e4b\u4ee5\u9f3b
p55
aV\u7edc\u7ece\u4e0d\u7edd
p56
aV\u7c89\u58a8\u767b\u573a
p57
aV\u77e5\u6cd5\u72af\u6cd5
p58
aV\u5389\u5175\u79e3\u9a6c
p59
aV\u767b\u5802\u5165\u5ba4
p60
aV\u76f8\u5f62\u89c1\u7ecc
p61
aV\u98ce\u9a70\u7535\u63a3
p62
aV\u7eb5\u6a2a\u636d\u9616
p63
aV\u4e00\u53f6\u77e5\u79cb
p64
aV\u67f3\u6697\u82b1\u660e
p65
aV\u76ee\u65e0\u5168\u725b
p66
aV\u6587\u4e0d\u52a0\u70b9
p67
aV\u4e39\u51e4\u671d\u9633
p68
aV\u840d\u6c34\u76f8\u9022
p69
aV\u5b88\u682a\u5f85\u5154
p70
aV\u6218\u65e0\u4e0d\u80dc
p71
aV\u6c5f\u5c71\u5982\u753b
p72
aV\u5b5f\u6bcd\u4e09\u8fc1
p73
aV\u5faa\u5faa\u5584\u8bf1
p74
aV\u9010\u9e7f\u4e2d\u539f
p75
aV\u53f9\u4e3a\u89c2\u6b62
p76
aV\u97e6\u7f16\u4e09\u7edd
p77
aV\u738b\u4faf\u5c06\u76f8
p78
aV\u6c34\u6027\u6768\u82b1
p79
aV\u8315\u8315\u5b51\u7acb
p80
aV\u5c3e\u5927\u4e0d\u6389
p81
aV\u6db8\u8f99\u4e4b\u9c8b
p82
aV\u585e\u7fc1\u5931\u9a6c
p83
aV\u5fc3\u65f7\u795e\u6021
p84
aV\u53c2\u5dee\u4e0d\u9f50
p85
aV\u83ab\u8877\u4e00\u662f
p86
aV\u843d\u53f6\u5f52\u6839
p87
aV\u591c\u90ce\u81ea\u5927
p88
aV\u5929\u9ad8\u5730\u539a
p89
aV\u7a7a\u8c37\u5e7d\u5170
p90
aV\u4ee5\u5106\u6548\u5c24
p91
aV\u79e6\u664b\u4e4b\u597d
p92
aV\u540d\u626c\u56db\u6d77
p93
aV\u7a0b\u95e8\u7acb\u96ea
p94
aV\u60ca\u5f13\u4e4b\u9e1f
p95
aV\u8c08\u7b11\u98ce\u751f
p96
aV\u6b63\u895f\u5371\u5750
p97
aV\u5c0f\u5bb6\u78a7\u7389
p98
aV\u60ca\u6d9b\u9a87\u6d6a
p99
aV\u73ed\u95e8\u5f04\u65a7
p100
aV\u5154\u6b7b\u72d7\u70f9
p101
aV\u9b51\u9b45\u9b4d\u9b49
p102
aV\u81ea\u6028\u81ea\u827e
p103
aV\u621b\u7136\u800c\u6b62
p104
aV\u9ad8\u697c\u5927\u53a6
p105
aV\u5929\u4e0b\u65e0\u654c
p106
aV\u4e00\u7f51\u6253\u5c3d
p107
aV\u5c0f\u5fc3\u7ffc\u7ffc
p108
aV\u4e5d\u5173\u864e\u8c79
p109
aV\u963f\u732b\u963f\u72d7
p110
aV\u5367\u864e\u85cf\u9f99
p111
aV\u81ea\u60ed\u5f62\u79fd
p112
aV\u6d6e\u751f\u82e5\u68a6
p113
aV\u767d\u4e91\u82cd\u72d7
p114
aV\u672c\u672b\u5012\u7f6e
p115
aV\u7ed5\u6881\u4e09\u65e5
p116
aV\u66f2\u7a81\u5f99\u85aa
p117
aV\u5de6\u9053\u65c1\u95e8
p118
aV\u4e5d\u4e5d\u5f52\u4e00
p119
aV\u8bda\u60f6\u8bda\u6050
p120
aV\u75c5\u5165\u818f\u8093
p121
aV\u9752\u6885\u7af9\u9a6c
p122
aV\u98ce\u58f0\u9e64\u5533
p123
aV\u8747\u8425\u72d7\u82df
p124
aV\u4e89\u5206\u593a\u79d2
p125
aV\u4e09\u4eba\u6210\u864e
p126
aV\u53f1\u54a4\u98ce\u4e91
p127
aV\u6c34\u843d\u77f3\u51fa
p128
aV\u5165\u6728\u4e09\u5206
p129
aV\u5f20\u706f\u7ed3\u5f69
p130
aV\u82b1\u82b1\u4e16\u754c
p131
aV\u968f\u9047\u800c\u5b89
p132
aV\u4f17\u77e2\u4e4b\u7684
p133
aV\u516b\u4ed9\u8fc7\u6d77
p134
aV\u6625\u534e\u79cb\u5b9e
p135
aV\u524d\u4ec6\u540e\u7ee7
p136
aV\u7ed8\u58f0\u7ed8\u8272
p137
aV\u5cf0\u56de\u8def\u8f6c
p138
aV\u74dc\u7530\u674e\u4e0b
p139
aV\u79fb\u82b1\u63a5\u6728
p140
aV\u6ee5\u7afd\u5145\u6570
p141
aV\u9f99\u51e4\u5448\u7965
p142
aV\u4e00\u8def\u987a\u98ce
p143
aV\u968f\u6ce2\u9010\u6d41
p144
aV\u4f17\u5fd7\u6210\u57ce
p145
aV\u522b\u6765\u65e0\u6059
p146
aV\u753b\u86c7\u6dfb\u8db3
p147
aV\u5206\u9053\u626c\u9573
p148
aV\u5929\u5e9c\u4e4b\u56fd
p149
aV\u77f3\u7834\u5929\u60ca
p150
aV\u5f04\u5047\u6210\u771f
p151
aV\u90af\u90f8\u5b66\u6b65
p152
aV\u98ce\u96e8\u65e0\u963b
p153
aV\u6d6e\u5149\u63a0\u5f71
p154
aV\u4e8b\u534a\u529f\u500d
p155
aV\u753b\u9f99\u70b9\u775b
p156
aV\u65e5\u65e5\u591c\u591c
p157
aV\u5927\u5f00\u773c\u754c
p158
aV\u8086\u65e0\u5fcc\u60ee
p159
aV\u5f02\u60f3\u5929\u5f00
p160
aV\u5162\u5162\u4e1a\u4e1a
p161
aV\u7b28\u9e1f\u5148\u98de
p162
aV\u5de6\u53f3\u9022\u6e90
p163
aV\u7cbe\u5fe0\u62a5\u56fd
p164
aV\u77eb\u6789\u8fc7\u6b63
p165
aV\u56de\u5fc3\u8f6c\u610f
p166
aV\u81ea\u76f8\u77db\u76fe
p167
aV\u4e5d\u4e94\u4e4b\u5c0a
p168
aV\u9762\u9762\u76f8\u89d1
p169
aV\u540e\u4f1a\u65e0\u671f
p170
aV\u80cc\u6c34\u4e00\u6218
p171
aV\u620e\u9a6c\u5025\u506c
p172
aV\u97a0\u8eac\u5c3d\u7601
p173
aV\u70df\u96e8\u8499\u8499
p174
aV\u9000\u907f\u4e09\u820d
p175
aV\u91d1\u521a\u6012\u76ee
p176
aV\u7eb7\u81f3\u6c93\u6765
p177
aV\u7a88\u7a95\u6dd1\u5973
p178
aV\u81ea\u7531\u81ea\u5728
p179
aV\u597d\u597d\u5148\u751f
p180
aV\u6d77\u5e02\u8703\u697c
p181
aV\u72e1\u5154\u4e09\u7a9f
p182
aV\u59d7\u59d7\u6765\u8fdf
p183
aV\u4e0d\u7ea6\u800c\u540c
p184
aV\u6c34\u6f2b\u91d1\u5c71
p185
aV\u9b3c\u8bdd\u8fde\u7bc7
p186
aV\u7709\u98de\u8272\u821e
p187
aV\u95e8\u53ef\u7f57\u96c0
p188
aV\u6625\u98ce\u5316\u96e8
p189
aV\u5973\u626e\u7537\u88c5
p190
aV\u6811\u5927\u6839\u6df1
p191
aV\u5e72\u5c06\u83ab\u90aa
p192
aV\u9532\u800c\u4e0d\u820d
p193
aV\u767d\u9a6c\u975e\u9a6c
p194
aV\u9a6c\u9769\u88f9\u5c38
p195
aV\u5367\u51b0\u6c42\u9ca4
p196
aV\u653e\u8361\u4e0d\u7f81
p197
aV\u56fd\u58eb\u65e0\u53cc
p198
aV\u8fc7\u72b9\u4e0d\u53ca
p199
aV\u5782\u5e18\u542c\u653f
p200
aV\u996e\u98df\u7537\u5973
p201
aV\u82b1\u56e2\u9526\u7c07
p202
aV\u884c\u5c38\u8d70\u8089
p203
aV\u820c\u6218\u7fa4\u5112
p204
aV\u52c7\u5f80\u76f4\u524d
p205
aV\u6bdb\u9042\u81ea\u8350
p206
aV\u65e0\u52a8\u4e8e\u8877
p207
aV\u5fc3\u7167\u4e0d\u5ba3
p208
aV\u5077\u5929\u6362\u65e5
p209
aV\u73e0\u5149\u5b9d\u6c14
p210
aV\u73a9\u4e16\u4e0d\u606d
p211
aV\u65d7\u9f13\u76f8\u5f53
p212
aV\u65e0\u53ef\u539a\u975e
p213
aV\u6311\u80a5\u62e3\u7626
p214
aV\u4e07\u7bad\u7a7f\u5fc3
p215
aV\u7fa4\u96c4\u9010\u9e7f
p216
aV\u4eba\u60c5\u4e16\u6545
p217
aV\u5ddd\u6d41\u4e0d\u606f
p218
aV\u9632\u5fae\u675c\u6e10
p219
aV\u4e07\u9a6c\u9f50\u5591
p220
aV\u9f99\u98de\u51e4\u821e
p221
aV\u8d76\u5c3d\u6740\u7edd
p222
aV\u6c42\u5168\u8d23\u5907
p223
aV\u60ca\u5929\u52a8\u5730
p224
aV\u4e0d\u53ef\u4e00\u4e16
p225
aV\u4e09\u4ece\u56db\u5fb7
p226
aV\u4e07\u9a6c\u5954\u817e
p227
aV\u4e0d\u6cd5\u4e4b\u5f92
p228
aV\u4e00\u5f80\u65e0\u524d
p229
aV\u4e0d\u5351\u4e0d\u4ea2
p230
aV\u4efb\u91cd\u9053\u8fdc
p231
aV\u4fe1\u624b\u62c8\u6765
p232
aV\u56e0\u679c\u62a5\u5e94
p233
aV\u4f83\u4f83\u800c\u8c08
p234
aV\u4e70\u691f\u8fd8\u73e0
p235
aV\u804a\u80dc\u4e8e\u65e0
p236
aV\u56ca\u8424\u6620\u96ea
p237
aV\u8033\u6fe1\u76ee\u67d3
p238
aV\u6829\u6829\u5982\u751f
p239
aV\u7269\u6781\u5fc5\u53cd
p240
aV\u7edd\u5904\u9022\u751f
p241
aV\u7a7a\u7a74\u6765\u98ce
p242
aV\u4ea2\u9f99\u6709\u6094
p243
aV\u95fb\u9e21\u8d77\u821e
p244
aV\u8033\u63d0\u9762\u547d
p245
aV\u4e1c\u5c71\u518d\u8d77
p246
aV\u7199\u7199\u6518\u6518
p247
aV\u671d\u4ee4\u5915\u6539
p248
aV\u5343\u65b9\u767e\u8ba1
p249
aV\u5341\u5b57\u8def\u53e3
p250
aV\u7537\u5927\u5f53\u5a5a
p251
aV\u5b89\u7136\u65e0\u6059
p252
aV\u4e0d\u4e00\u800c\u8db3
p253
aV\u6a2a\u626b\u5343\u519b
p254
aV\u767b\u5cf0\u9020\u6781
p255
aV\u51ff\u58c1\u5077\u5149
p256
aV\u7d2b\u6c14\u4e1c\u6765
p257
aV\u6570\u5178\u5fd8\u7956
p258
aV\u5929\u957f\u5730\u4e45
p259
aV\u91d1\u5c4b\u85cf\u5a07
p260
aV\u767e\u5e74\u597d\u5408
p261
aV\u8840\u6218\u5230\u5e95
p262
aV\u9ed4\u9a74\u6280\u7a77
p263
aV\u60a3\u5f97\u60a3\u5931
p264
aV\u77e2\u5fd7\u4e0d\u6e1d
p265
aV\u9e70\u51fb\u957f\u7a7a
p266
aV\u51fa\u6c34\u8299\u84c9
p267
aV\u8bcd\u4e0d\u8fbe\u610f
p268
aV\u65b0\u4ead\u5bf9\u6ce3
p269
aV\u996e\u9e29\u6b62\u6e34
p270
aV\u5343\u9524\u767e\u70bc
p271
aV\u8c41\u7136\u5f00\u6717
p272
aV\u6307\u9e7f\u4e3a\u9a6c
p273
aV\u70b9\u77f3\u6210\u91d1
p274
aV\u6840\u9a9c\u4e0d\u9a6f
p275
aV\u4e0a\u884c\u4e0b\u6548
p276
aV\u9003\u4e4b\u592d\u592d
p277
aV\u91cd\u89c1\u5929\u65e5
p278
aV\u81ea\u5f3a\u4e0d\u606f
p279
aV\u671d\u79e6\u66ae\u695a
p280
aV\u725b\u90ce\u7ec7\u5973
p281
aV\u8d3c\u7709\u9f20\u773c
p282
aV\u52a9\u4eba\u4e3a\u4e50
p283
aV\u5b89\u5c45\u4e50\u4e1a
p284
aV\u6d17\u8033\u606d\u542c
p285
aV\u4e0d\u4ee5\u4e3a\u7136
p286
aV\u4eca\u751f\u4eca\u4e16
p287
aV\u51b2\u950b\u9677\u9635
p288
aV\u4e0d\u8a00\u800c\u55bb
p289
aV\u4e0d\u7edd\u5982\u7f15
p290
aV\u91d1\u7ae5\u7389\u5973
p291
aV\u6b32\u76d6\u5f25\u5f70
p292
aV\u51fa\u751f\u5165\u6b7b
p293
aV\u865a\u6000\u82e5\u8c37
p294
aV\u851a\u7136\u6210\u98ce
p295
aV\u65ad\u7ae0\u53d6\u4e49
p296
aV\u65f6\u6765\u8fd0\u8f6c
p297
aV\u5929\u4e4b\u9a84\u5b50
p298
aV\u6c86\u7023\u4e00\u6c14
p299
aV\u82b1\u5bb9\u6708\u8c8c
p300
aV\u900d\u9065\u6cd5\u5916
p301
aV\u8a00\u7b80\u610f\u8d45
p302
aV\u6f5c\u79fb\u9ed8\u5316
p303
aV\u5fcd\u4fca\u4e0d\u7981
p304
aV\u98ce\u534e\u7edd\u4ee3
p305
aV\u7aed\u6cfd\u800c\u6e14
p306
aV\u9ad8\u5c71\u4ef0\u6b62
p307
aV\u81f3\u7406\u540d\u8a00
p308
aV\u5355\u5200\u76f4\u5165
p309
aV\u711a\u818f\u7ee7\u6677
p310
aV\u56e0\u5730\u5236\u5b9c
p311
aV\u79c0\u8272\u53ef\u9910
p312
aV\u98ce\u5377\u6b8b\u4e91
p313
aV\u5927\u667a\u82e5\u611a
p314
aV\u5b57\u5b57\u73e0\u7391
p315
aV\u8eab\u4e0d\u7531\u5df1
p316
aV\u5664\u82e5\u5bd2\u8749
p317
aV\u4eba\u7434\u4ff1\u4ea1
p318
aV\u65ad\u8896\u4e4b\u7656
p319
aV\u4e49\u65e0\u53cd\u987e
p320
aV\u6b8a\u9014\u540c\u5f52
p321
aV\u676f\u5f13\u86c7\u5f71
p322
aV\u5fc3\u529b\u8870\u7aed
p323
aV\u4e00\u77f3\u4e8c\u9e1f
p324
aV\u5e72\u67f4\u70c8\u706b
p325
aV\u638c\u4e0a\u660e\u73e0
p326
aV\u8986\u96e8\u7ffb\u4e91
p327
aV\u7433\u7405\u6ee1\u76ee
p328
aV\u675e\u4eba\u5fe7\u5929
p329
aV\u5168\u529b\u4ee5\u8d74
p330
aV\u501f\u5200\u6740\u4eba
p331
aV\u8863\u9999\u9b13\u5f71
p332
aV\u98ce\u82b1\u96ea\u6708
p333
aV\u9a6c\u5230\u6210\u529f
p334
aV\u7434\u68cb\u4e66\u753b
p335
aV\u6709\u51e4\u6765\u4eea
p336
aV\u8bb3\u83ab\u5982\u6df1
p337
aV\u503e\u56fd\u503e\u57ce
p338
aV\u4e95\u5e95\u4e4b\u86d9
p339
aV\u9ad8\u5c71\u6d41\u6c34
p340
aV\u9996\u9f20\u4e24\u7aef
p341
aV\u51e4\u51f0\u4e8e\u98de
p342
aV\u98de\u9ec4\u817e\u8fbe
p343
aV\u4e91\u6de1\u98ce\u8f7b
p344
aV\u4e16\u6001\u708e\u51c9
p345
aV\u56fd\u8272\u5929\u9999
p346
aV\u4ece\u5584\u5982\u6d41
p347
aV\u671b\u5c18\u83ab\u53ca
p348
aV\u6d6a\u8ff9\u5929\u6daf
p349
aV\u90d1\u4eba\u4e70\u5c65
p350
aV\u5929\u8863\u65e0\u7f1d
p351
aV\u5929\u9a6c\u884c\u7a7a
p352
aV\u95fb\u8fc7\u5219\u559c
p353
aV\u8fd4\u749e\u5f52\u771f
p354
aV\u5927\u79b9\u6cbb\u6c34
p355
aV\u725b\u5934\u9a6c\u9762
p356
aV\u5934\u6655\u76ee\u7729
p357
aV\u9cde\u6b21\u6809\u6bd4
p358
aV\u6cbd\u540d\u9493\u8a89
p359
aV\u5343\u519b\u4e07\u9a6c
p360
aV\u6ca7\u6d77\u6851\u7530
p361
aV\u4e09\u5c71\u4e94\u5cb3
p362
aV\u6781\u4e50\u4e16\u754c
p363
aV\u65e0\u5fe7\u65e0\u8651
p364
aV\u7231\u83ab\u80fd\u52a9
p365
aV\u671b\u6d0b\u5174\u53f9
p366
aV\u65e0\u4e0e\u4f26\u6bd4
p367
aV\u65f6\u4e0d\u6211\u5f85
p368
aV\u76f8\u4eb2\u76f8\u7231
p369
aV\u5c82\u6709\u6b64\u7406
p370
aV\u7fe9\u7fe9\u516c\u5b50
p371
aV\u6cb3\u4e1c\u72ee\u543c
p372
aV\u9ec4\u9053\u5409\u65e5
p373
aV\u7eb8\u9189\u91d1\u8ff7
p374
aV\u5b8c\u74a7\u5f52\u8d75
p375
aV\u54ab\u5c3a\u5929\u6daf
p376
aV\u6765\u5386\u4e0d\u660e
p377
aV\u4ee5\u5fb7\u62a5\u6028
p378
aV\u671b\u5176\u9879\u80cc
p379
aV\u5929\u7f51\u6062\u6062
p380
aV\u5927\u5668\u665a\u6210
p381
aV\u9b3c\u54ed\u795e\u568e
p382
aV\u6625\u79cb\u7b14\u6cd5
p383
aV\u4eba\u5fc3\u4e0d\u53e4
p384
aV\u56db\u9762\u695a\u6b4c
p385
aV\u6c14\u5598\u5401\u5401
p386
aV\u6cfe\u6e2d\u5206\u660e
p387
aV\u8fde\u9501\u53cd\u5e94
p388
aV\u775a\u7726\u5fc5\u62a5
p389
aV\u5206\u5ead\u6297\u793c
p390
aV\u9178\u751c\u82e6\u8fa3
p391
aV\u4e0d\u60d1\u4e4b\u5e74
p392
aV\u51fa\u795e\u5165\u5316
p393
aV\u4e03\u60c5\u516d\u6b32
p394
aV\u65e0\u6cd5\u65e0\u5929
p395
aV\u76f8\u6fe1\u4ee5\u6cab
p396
aV\u94c1\u6811\u5f00\u82b1
p397
aV\u8349\u957f\u83ba\u98de
p398
aV\u9ec4\u91d1\u65f6\u4ee3
p399
aV\u7eb8\u4e0a\u8c08\u5175
p400
aV\u4eba\u5c71\u4eba\u6d77
p401
aV\u4f5c\u8327\u81ea\u7f1a
p402
aV\u4e94\u5b50\u767b\u79d1
p403
aV\u6c38\u65e0\u6b62\u5883
p404
aV\u67aa\u6797\u5f39\u96e8
p405
aV\u80fd\u8bf4\u4f1a\u9053
p406
aV\u5fc3\u733f\u610f\u9a6c
p407
aV\u79f0\u5fc3\u5982\u610f
p408
aV\u5984\u81ea\u83f2\u8584
p409
aV\u5f53\u4ec1\u4e0d\u8ba9
p410
aV\u5929\u4f5c\u4e4b\u5408
p411
aV\u949f\u9e23\u9f0e\u98df
p412
aV\u4e00\u9a6c\u5f53\u5148
p413
aV\u96e8\u8fc7\u5929\u6674
p414
aV\u4e00\u5e06\u98ce\u987a
p415
aV\u76f2\u4eba\u6478\u8c61
p416
aV\u559c\u95fb\u4e50\u89c1
p417
aV\u5f97\u9647\u671b\u8700
p418
aV\u5341\u4e07\u706b\u6025
p419
aV\u632f\u804b\u53d1\u8069
p420
aV\u767e\u91cc\u6311\u4e00
p421
aV\u63d2\u79d1\u6253\u8be8
p422
aV\u68cb\u9022\u5bf9\u624b
p423
aV\u7cbe\u6253\u7ec6\u7b97
p424
aV\u7ed8\u58f0\u7ed8\u5f71
p425
aV\u4e09\u4f4d\u4e00\u4f53
p426
aV\u968f\u5fc3\u6240\u6b32
p427
aV\u4eca\u975e\u6614\u6bd4
p428
aV\u5deb\u5c71\u4e91\u96e8
p429
aV\u65e0\u5730\u81ea\u5bb9
p430
aV\u4f11\u621a\u76f8\u5173
p431
aV\u4e0d\u803b\u4e0b\u95ee
p432
aV\u91d1\u6208\u94c1\u9a6c
p433
aV\u5fc3\u5982\u6b62\u6c34
p434
aV\u4e0d\u77e5\u6240\u63aa
p435
aV\u63a9\u8033\u76d7\u94c3
p436
aV\u4eba\u6765\u4eba\u5f80
p437
aV\u529d\u767e\u8bbd\u4e00
p438
aV\u9189\u751f\u68a6\u6b7b
p439
aV\u82b1\u82b1\u516c\u5b50
p440
aV\u5929\u4e0a\u4eba\u95f4
p441
aV\u91d1\u98ce\u7389\u9732
p442
aV\u9752\u5c71\u4e0d\u8001
p443
aV\u9f99\u864e\u98ce\u4e91
p444
aV\u95ed\u95e8\u9020\u8f66
p445
aV\u8fdb\u9000\u7ef4\u8c37
p446
aV\u4ead\u4ead\u7389\u7acb
p447
aV\u91d1\u7389\u6ee1\u5802
p448
aV\u5c06\u5fc3\u6bd4\u5fc3
p449
aV\u8e49\u8dce\u5c81\u6708
p450
aV\u9f99\u751f\u4e5d\u5b50
p451
aV\u8d64\u5b50\u4e4b\u5fc3
p452
aV\u6c34\u6728\u6e05\u534e
p453
aV\u5343\u94a7\u4e00\u53d1
p454
aV\u521a\u610e\u81ea\u7528
p455
aV\u6ed4\u6ed4\u4e0d\u7edd
p456
aV\u676f\u6c34\u8f66\u85aa
p457
aV\u5bf9\u725b\u5f39\u7434
p458
aV\u629b\u7816\u5f15\u7389
p459
aV\u540d\u526f\u5176\u5b9e
p460
aV\u80e1\u670d\u9a91\u5c04
p461
aV\u6597\u8f6c\u661f\u79fb
p462
aV\u517b\u751f\u4e4b\u9053
p463
aV\u660e\u65e5\u9ec4\u82b1
p464
aV\u9e4f\u7a0b\u4e07\u91cc
p465
aV\u68a8\u82b1\u5e26\u96e8
p466
aV\u8863\u51a0\u695a\u695a
p467
aV\u5f00\u95e8\u89c1\u5c71
p468
aV\u6bdb\u9aa8\u609a\u7136
p469
aV\u6349\u895f\u89c1\u8098
p470
aV\u4e50\u6b64\u4e0d\u75b2
p471
aV\u597d\u4e8b\u591a\u78e8
p472
aV\u5929\u65b9\u591c\u8c2d
p473
aV\u4e16\u5916\u6843\u6e90
p474
aV\u51fa\u4eba\u5934\u5730
p475
aV\u8001\u9a6c\u8bc6\u9014
p476
aV\u5ba0\u8fb1\u4e0d\u60ca
p477
aV\u5929\u6daf\u6d77\u89d2
p478
aV\u8feb\u5728\u7709\u776b
p479
aV\u5507\u4ea1\u9f7f\u5bd2
p480
aV\u7834\u91dc\u6c89\u821f
p481
aV\u6b67\u8def\u4ea1\u7f8a
p482
aV\u82b1\u597d\u6708\u5706
p483
aV\u5ff5\u5ff5\u4e0d\u5fd8
p484
aV\u56db\u6d77\u4e00\u5bb6
p485
aV\u4e00\u9e23\u60ca\u4eba
p486
aV\u4e0d\u80eb\u800c\u8d70
p487
aV\u9e64\u5533\u534e\u4ead
p488
aV\u4eba\u751f\u5982\u68a6
p489
aV\u98a0\u5012\u4e7e\u5764
p490
aV\u7b11\u9010\u989c\u5f00
p491
aV\u9a6c\u5230\u529f\u6210
p492
aV\u56de\u7738\u4e00\u7b11
p493
aV\u518d\u63a5\u518d\u5389
p494
aV\u6240\u5411\u62ab\u9761
p495
aV\u8bf8\u5b50\u767e\u5bb6
p496
aV\u6019\u6076\u4e0d\u609b
p497
aV\u5982\u5c65\u8584\u51b0
p498
aV\u7f18\u6728\u6c42\u9c7c
p499
aV\u9f99\u6f6d\u864e\u7a74
p500
aV\u4e49\u8584\u4e91\u5929
p501
aV\u795e\u673a\u5999\u7b97
p502
aV\u820d\u6211\u5176\u8c01
p503
aV\u5468\u800c\u590d\u59cb
p504
aV\u5df4\u5c71\u591c\u96e8
p505
aV\u89c1\u5fae\u77e5\u8457
p506
aV\u6d77\u67af\u77f3\u70c2
p507
aV\u809d\u80c6\u76f8\u7167
p508
aV\u5144\u5f1f\u960b\u5899
p509
aV\u6597\u9152\u5b66\u58eb
p510
aV\u6301\u4e4b\u4ee5\u6052
p511
aV\u798f\u661f\u9ad8\u7167
p512
aV\u8d24\u59bb\u826f\u6bcd
p513
aV\u94e9\u7fbd\u800c\u5f52
p514
aV\u6b65\u6b65\u4e3a\u8425
p515
aV\u4e3a\u864e\u4f5c\u4f25
p516
aV\u5386\u5386\u5728\u76ee
p517
aV\u96be\u5144\u96be\u5f1f
p518
aV\u9a87\u4eba\u542c\u95fb
p519
aV\u95e8\u5f53\u6237\u5bf9
p520
aV\u4e00\u53f6\u969c\u76ee
p521
aV\u5175\u4e34\u57ce\u4e0b
p522
aV\u4eba\u6d6e\u4e8e\u4e8b
p523
aV\u5c3d\u5584\u5c3d\u7f8e
p524
aV\u6b22\u5929\u559c\u5730
p525
aV\u9890\u6307\u6c14\u4f7f
p526
aV\u72d7\u5c3e\u7eed\u8c82
p527
aV\u98ce\u6708\u65e0\u8fb9
p528
aV\u4f18\u67d4\u5be1\u65ad
p529
aV\u5fc3\u6709\u4f59\u60b8
p530
aV\u51e4\u6bdb\u9e9f\u89d2
p531
aV\u4e0a\u4e0b\u5176\u624b
p532
aV\u957f\u751f\u4e0d\u6b7b
p533
aV\u4eba\u9762\u6843\u82b1
p534
aV\u516d\u9053\u8f6e\u56de
p535
aV\u96be\u5f97\u7cca\u6d82
p536
aV\u514b\u5df1\u590d\u793c
p537
aV\u751a\u56a3\u5c18\u4e0a
p538
aV\u4e09\u6559\u4e5d\u6d41
p539
aV\u5fc3\u5982\u5200\u5272
p540
aV\u4e09\u7687\u4e94\u5e1d
p541
aV\u5b5c\u5b5c\u4e0d\u5026
p542
aV\u91d1\u7389\u826f\u7f18
p543
aV\u56e0\u6750\u65bd\u6559
p544
aV\u5c81\u5bd2\u4e09\u53cb
p545
aV\u60f3\u5165\u975e\u975e
p546
aV\u6c5f\u90ce\u624d\u5c3d
p547
aV\u671b\u6885\u6b62\u6e34
p548
aV\u89e5\u7b79\u4ea4\u9519
p549
aV\u95e8\u5ead\u82e5\u5e02
p550
aV\u65e0\u4ef7\u4e4b\u5b9d
p551
aV\u656c\u8c22\u4e0d\u654f
p552
aV\u5f85\u5b57\u95fa\u4e2d
p553
aV\u5929\u4f26\u4e4b\u4e50
p554
aV\u60c5\u4e0d\u81ea\u7981
p555
aV\u76d1\u5b88\u81ea\u76d7
p556
aV\u58ee\u5fd7\u51cc\u4e91
p557
aV\u60ca\u9e3f\u4e00\u77a5
p558
aV\u4e0d\u53ef\u540d\u72b6
p559
aV\u76f8\u5f97\u76ca\u5f70
p560
aV\u963f\u9f3b\u5730\u72f1
p561
aV\u65e0\u4e3a\u800c\u6cbb
p562
aV\u767d\u9a79\u8fc7\u9699
p563
aV\u4e09\u9633\u5f00\u6cf0
p564
aV\u8e3d\u8e3d\u72ec\u884c
p565
aV\u7269\u7ade\u5929\u62e9
p566
aV\u5e96\u4e01\u89e3\u725b
p567
aV\u66fe\u51e0\u4f55\u65f6
p568
aV\u56de\u5149\u8fd4\u7167
p569
aV\u8d3b\u7b11\u5927\u65b9
p570
aV\u9a6c\u8e0f\u98de\u71d5
p571
aV\u539a\u5fb7\u8f7d\u7269
p572
aV\u6ee1\u8179\u7ecf\u7eb6
p573
aV\u4e27\u5fc3\u75c5\u72c2
p574
aV\u6dcb\u6f13\u5c3d\u81f4
p575
aV\u4e50\u4e0d\u601d\u8700
p576
aV\u7f8e\u8f6e\u7f8e\u5942
p577
aV\u8349\u8239\u501f\u7bad
p578
aV\u7b5a\u8def\u84dd\u7f15
p579
aV\u957f\u751f\u4e0d\u8001
p580
aV\u8e0c\u8e87\u6ee1\u5fd7
p581
aV\u76f8\u656c\u5982\u5bbe
p582
aV\u4e94\u82b1\u5927\u7ed1
p583
aV\u4e5d\u6b7b\u4e00\u751f
p584
aV\u5b89\u6b65\u5f53\u8f66
p585
aV\u6295\u9f20\u5fcc\u5668
p586
aV\u591a\u591a\u76ca\u5584
p587
aV\u8282\u54c0\u987a\u53d8
p588
aV\u6843\u4e4b\u592d\u592d
p589
aV\u603b\u800c\u8a00\u4e4b
p590
aV\u5434\u4e0b\u963f\u8499
p591
aV\u6697\u5ea6\u9648\u4ed3
p592
aV\u5dee\u5f3a\u4eba\u610f
p593
aV\u5929\u7f57\u5730\u7f51
p594
aV\u674e\u4ee3\u6843\u50f5
p595
aV\u8366\u8366\u5927\u7aef
p596
aV\u73e0\u8054\u74a7\u5408
p597
aV\u54ed\u7b11\u4e0d\u5f97
p598
aV\u4e24\u5c0f\u65e0\u731c
p599
aV\u4e00\u4e18\u4e4b\u8c89
p600
aV\u949f\u7075\u6bd3\u79c0
p601
aV\u4e00\u4e1d\u4e0d\u6302
p602
aV\u7231\u5c4b\u53ca\u4e4c
p603
aV\u59f9\u7d2b\u5ae3\u7ea2
p604
aV\u9e20\u5360\u9e4a\u5de2
p605
aV\u9b3c\u65a7\u795e\u5de5
p606
aV\u4e07\u4eba\u7a7a\u5df7
p607
aV\u98de\u86fe\u6251\u706b
p608
aV\u9e64\u7acb\u9e21\u7fa4
p609
aV\u60ac\u6881\u523a\u80a1
p610
aV\u539f\u6765\u5982\u6b64
p611
aV\u559c\u51fa\u671b\u5916
p612
aV\u79cb\u98ce\u843d\u53f6
p613
aV\u7a7f\u9488\u5f15\u7ebf
p614
aV\u552f\u6211\u72ec\u5c0a
p615
aV\u76f8\u89c1\u6068\u665a
p616
aV\u5357\u8f95\u5317\u8f99
p617
aV\u5750\u4e95\u89c2\u5929
p618
aV\u9738\u738b\u522b\u59ec
p619
aV\u63d2\u7fc5\u96be\u9003
p620
aV\u98ce\u6d41\u97f5\u4e8b
p621
aV\u5dfe\u5e3c\u82f1\u96c4
p622
aV\u5154\u6b7b\u72d0\u60b2
p623
aV\u58ee\u58eb\u65ad\u8155
p624
aV\u65f6\u5149\u834f\u82d2
p625
aV\u9b3c\u8ff7\u5fc3\u7a8d
p626
aV\u865a\u4e0e\u59d4\u86c7
p627
aV\u4e00\u751f\u4e00\u4e16
p628
aV\u97ad\u957f\u83ab\u53ca
p629
aV\u96fe\u91cc\u770b\u82b1
p630
aV\u6709\u7684\u653e\u77e2
p631
aV\u843d\u82f1\u7f24\u7eb7
p632
aV\u7ea2\u989c\u77e5\u5df1
p633
aV\u9047\u4eba\u4e0d\u6dd1
p634
aV\u65e0\u5f71\u65e0\u8e2a
p635
aV\u98ce\u8d77\u4e91\u6d8c
p636
aV\u81ea\u6b3a\u6b3a\u4eba
p637
aV\u60c5\u975e\u5f97\u5df2
p638
aV\u661f\u706b\u71ce\u539f
p639
aV\u674f\u96e8\u68a8\u4e91
p640
aV\u96f7\u9706\u4e07\u94a7
p641
aV\u800c\u7acb\u4e4b\u5e74
p642
aV\u98d8\u98d8\u6b32\u4ed9
p643
aV\u91d1\u8749\u8131\u58f3
p644
aV\u98ce\u5c18\u4ec6\u4ec6
p645
aV\u7686\u5927\u6b22\u559c
p646
aV\u8131\u9896\u800c\u51fa
p647
aV\u82f1\u96c4\u8c6a\u6770
p648
aV\u5b81\u7f3a\u6bcb\u6ee5
p649
aV\u82e6\u5fc3\u5b64\u8be3
p650
aV\u5c38\u4f4d\u7d20\u9910
p651
aV\u52ab\u540e\u4f59\u751f
p652
aV\u6ca7\u6d77\u4e00\u7c9f
p653
aV\u8feb\u4e0d\u53ca\u5f85
p654
aV\u96c6\u814b\u6210\u88d8
p655
aV\u7518\u4e4b\u5982\u9974
p656
aV\u8272\u5389\u5185\u834f
p657
aV\u4e00\u4e8b\u65e0\u6210
p658
aV\u53f6\u516c\u597d\u9f99
p659
aV\u8c22\u5929\u8c22\u5730
p660
aV\u706b\u6811\u94f6\u82b1
p661
aV\u97ec\u5149\u517b\u6666
p662
aV\u5403\u559d\u73a9\u4e50
p663
aV\u82e5\u5373\u82e5\u79bb
p664
aV\u8ff7\u9014\u77e5\u8fd4
p665
aV\u773c\u82b1\u7f2d\u4e71
p666
aV\u7c2a\u7f28\u4e16\u65cf
p667
aV\u7cbe\u536b\u586b\u6d77
p668
aV\u4e07\u5bb6\u706f\u706b
p669
aV\u4e00\u98de\u51b2\u5929
p670
aV\u672a\u96e8\u7ef8\u7f2a
p671
aV\u6709\u6043\u65e0\u6050
p672
aV\u7ea6\u6cd5\u4e09\u7ae0
p673
aV\u7eb5\u6a2a\u5929\u4e0b
p674
aV\u4e00\u8bfa\u5343\u91d1
p675
aV\u56fe\u7a77\u5315\u89c1
p676
aV\u60fa\u60fa\u76f8\u60dc
p677
aV\u4e0d\u843d\u7aa0\u81fc
p678
aV\u4e0d\u5410\u4e0d\u5feb
p679
aV\u8d1f\u8346\u8bf7\u7f6a
p680
aV\u725d\u9e21\u53f8\u6668
p681
aV\u5c0f\u65f6\u4e86\u4e86
p682
aV\u89c1\u8d24\u601d\u9f50
p683
aV\u6a2a\u884c\u9738\u9053
p684
aV\u8896\u624b\u65c1\u89c2
p685
aV\u4e1c\u5f20\u897f\u671b
p686
aV\u5982\u706b\u5982\u837c
p687
aV\u4e0d\u6c42\u751a\u89e3
p688
aV\u91d1\u679d\u7389\u53f6
p689
aV\u6619\u82b1\u4e00\u73b0
p690
aV\u82df\u5ef6\u6b8b\u5598
p691
aV\u751f\u8d22\u6709\u9053
p692
aV\u6ca1\u5b8c\u6ca1\u4e86
p693
aV\u9053\u8c8c\u5cb8\u7136
p694
aV\u65f6\u8fc7\u5883\u8fc1
p695
aV\u901d\u8005\u5982\u65af
p696
aV\u98de\u9f99\u5728\u5929
p697
aV\u97ad\u8f9f\u5165\u91cc
p698
aV\u5999\u624b\u7a7a\u7a7a
p699
aV\u6478\u91d1\u6821\u5c09
p700
aV\u540c\u4ec7\u654c\u5ffe
p701
aV\u5927\u5feb\u6735\u9890
p702
aV\u4e58\u98ce\u7834\u6d6a
p703
aV\u86db\u4e1d\u9a6c\u8ff9
p704
aV\u6809\u98ce\u6c90\u96e8
p705
aV\u7a77\u5175\u9ee9\u6b66
p706
aV\u63d0\u7eb2\u6308\u9886
p707
aV\u5947\u8d27\u53ef\u5c45
p708
aV\u4ee5\u5fb7\u670d\u4eba
p709
aV\u5c45\u5b89\u601d\u5371
p710
aV\u51a0\u5195\u5802\u7687
p711
aV\u4e00\u89c1\u949f\u60c5
p712
aV\u8863\u51a0\u79bd\u517d
p713
aV\u58f0\u540d\u72fc\u85c9
p714
aV\u8eab\u4f53\u529b\u884c
p715
aV\u6d77\u9614\u5929\u7a7a
p716
aV\u6c57\u725b\u5145\u680b
p717
aV\u62d4\u82d7\u52a9\u957f
p718
aV\u4e00\u4e1d\u4e0d\u82df
p719
aV\u5929\u4e0b\u65e0\u53cc
p720
aV\u72d0\u5047\u864e\u5a01
p721
aV\u6839\u6df1\u8482\u56fa
p722
aV\u85d5\u65ad\u4e1d\u8fde
p723
aV\u4e94\u6e56\u56db\u6d77
p724
aV\u6b22\u805a\u4e00\u5802
p725
aV\u6709\u95ee\u5fc5\u7b54
p726
aV\u6e29\u6587\u5c14\u96c5
p727
aV\u6b9a\u7cbe\u7aed\u8651
p728
aV\u767d\u624b\u8d77\u5bb6
p729
aV\u6309\u56fe\u7d22\u9aa5
p730
aV\u671b\u7a7f\u79cb\u6c34
p731
aV\u767e\u9e1f\u671d\u51e4
p732
aV\u751c\u8a00\u871c\u8bed
p733
aV\u53ef\u89c1\u4e00\u6591
p734
aV\u65e0\u61c8\u53ef\u51fb
p735
aV\u4e00\u9a6c\u5e73\u5ddd
p736
aV\u4e3e\u91cd\u82e5\u8f7b
p737
aV\u5973\u5a32\u8865\u5929
p738
aV\u5f62\u5f71\u4e0d\u79bb
p739
aV\u9531\u94e2\u5fc5\u8f83
p740
aV\u9f99\u4e89\u864e\u6597
p741
aV\u7099\u624b\u53ef\u70ed
p742
aV\u4e00\u8e74\u800c\u5c31
p743
aV\u7eff\u6811\u6210\u836b
p744
aV\u91dc\u5e95\u62bd\u85aa
p745
aV\u53e3\u662f\u5fc3\u975e
p746
aV\u7518\u5fc3\u60c5\u613f
p747
aV\u803f\u803f\u4e8e\u6000
p748
aV\u6c89\u9c7c\u843d\u96c1
p749
aV\u4e2d\u5eb8\u4e4b\u9053
p750
aV\u611a\u516c\u79fb\u5c71
p751
aV\u706b\u4e2d\u53d6\u6817
p752
aV\u5e73\u6b65\u9752\u4e91
p753
aV\u98ce\u548c\u65e5\u4e3d
p754
aV\u6b32\u64d2\u6545\u7eb5
p755
aV\u8d8a\u4fce\u4ee3\u5e96
p756
aV\u767d\u8679\u8d2f\u65e5
p757
aV\u5b66\u5bcc\u4e94\u8f66
p758
aV\u4e0d\u4ea6\u4e50\u4e4e
p759
aV\u5916\u5f3a\u4e2d\u5e72
p760
aV\u4e49\u6124\u586b\u81ba
p761
aV\u548c\u5149\u540c\u5c18
p762
atRp763
.